	.file	"ublas_boost.cpp"
	.text
	.section	.text._ZSt3minImERKT_S2_S2_,"axG",@progbits,_ZSt3minImERKT_S2_S2_,comdat
	.weak	_ZSt3minImERKT_S2_S2_
	.type	_ZSt3minImERKT_S2_S2_, @function
_ZSt3minImERKT_S2_S2_:
.LFB1278:
	.cfi_startproc
	endbr64
	pushq	%rbp
	.cfi_def_cfa_offset 16
	.cfi_offset 6, -16
	movq	%rsp, %rbp
	.cfi_def_cfa_register 6
	movq	%rdi, -8(%rbp)
	movq	%rsi, -16(%rbp)
	movq	-16(%rbp), %rax
	movq	(%rax), %rdx
	movq	-8(%rbp), %rax
	movq	(%rax), %rax
	cmpq	%rax, %rdx
	jnb	.L2
	movq	-16(%rbp), %rax
	jmp	.L3
.L2:
	movq	-8(%rbp), %rax
.L3:
	popq	%rbp
	.cfi_def_cfa 7, 8
	ret
	.cfi_endproc
.LFE1278:
	.size	_ZSt3minImERKT_S2_S2_, .-_ZSt3minImERKT_S2_S2_
	.section	.rodata
	.type	_ZN6__pstl9execution2v1L3seqE, @object
	.size	_ZN6__pstl9execution2v1L3seqE, 1
_ZN6__pstl9execution2v1L3seqE:
	.zero	1
	.type	_ZN6__pstl9execution2v1L3parE, @object
	.size	_ZN6__pstl9execution2v1L3parE, 1
_ZN6__pstl9execution2v1L3parE:
	.zero	1
	.type	_ZN6__pstl9execution2v1L9par_unseqE, @object
	.size	_ZN6__pstl9execution2v1L9par_unseqE, 1
_ZN6__pstl9execution2v1L9par_unseqE:
	.zero	1
	.type	_ZN6__pstl9execution2v1L5unseqE, @object
	.size	_ZN6__pstl9execution2v1L5unseqE, 1
_ZN6__pstl9execution2v1L5unseqE:
	.zero	1
	.local	_ZStL8__ioinit
	.comm	_ZStL8__ioinit,1,1
	.section	.text._ZNSt14numeric_limitsImE3maxEv,"axG",@progbits,_ZNSt14numeric_limitsImE3maxEv,comdat
	.weak	_ZNSt14numeric_limitsImE3maxEv
	.type	_ZNSt14numeric_limitsImE3maxEv, @function
_ZNSt14numeric_limitsImE3maxEv:
.LFB3476:
	.cfi_startproc
	endbr64
	pushq	%rbp
	.cfi_def_cfa_offset 16
	.cfi_offset 6, -16
	movq	%rsp, %rbp
	.cfi_def_cfa_register 6
	movq	$-1, %rax
	popq	%rbp
	.cfi_def_cfa 7, 8
	ret
	.cfi_endproc
.LFE3476:
	.size	_ZNSt14numeric_limitsImE3maxEv, .-_ZNSt14numeric_limitsImE3maxEv
	.section	.rodata
	.align 4
	.type	_ZN9__gnu_cxxL21__default_lock_policyE, @object
	.size	_ZN9__gnu_cxxL21__default_lock_policyE, 4
_ZN9__gnu_cxxL21__default_lock_policyE:
	.long	2
	.section	.text._ZN5boost7numeric5ublas14nonassignable_13nonassignableC2Ev,"axG",@progbits,_ZN5boost7numeric5ublas14nonassignable_13nonassignableC5Ev,comdat
	.align 2
	.weak	_ZN5boost7numeric5ublas14nonassignable_13nonassignableC2Ev
	.type	_ZN5boost7numeric5ublas14nonassignable_13nonassignableC2Ev, @function
_ZN5boost7numeric5ublas14nonassignable_13nonassignableC2Ev:
.LFB4089:
	.cfi_startproc
	endbr64
	pushq	%rbp
	.cfi_def_cfa_offset 16
	.cfi_offset 6, -16
	movq	%rsp, %rbp
	.cfi_def_cfa_register 6
	movq	%rdi, -8(%rbp)
	nop
	popq	%rbp
	.cfi_def_cfa 7, 8
	ret
	.cfi_endproc
.LFE4089:
	.size	_ZN5boost7numeric5ublas14nonassignable_13nonassignableC2Ev, .-_ZN5boost7numeric5ublas14nonassignable_13nonassignableC2Ev
	.weak	_ZN5boost7numeric5ublas14nonassignable_13nonassignableC1Ev
	.set	_ZN5boost7numeric5ublas14nonassignable_13nonassignableC1Ev,_ZN5boost7numeric5ublas14nonassignable_13nonassignableC2Ev
	.section	.text._ZN5boost7numeric5ublas14nonassignable_13nonassignableD2Ev,"axG",@progbits,_ZN5boost7numeric5ublas14nonassignable_13nonassignableD5Ev,comdat
	.align 2
	.weak	_ZN5boost7numeric5ublas14nonassignable_13nonassignableD2Ev
	.type	_ZN5boost7numeric5ublas14nonassignable_13nonassignableD2Ev, @function
_ZN5boost7numeric5ublas14nonassignable_13nonassignableD2Ev:
.LFB4092:
	.cfi_startproc
	endbr64
	pushq	%rbp
	.cfi_def_cfa_offset 16
	.cfi_offset 6, -16
	movq	%rsp, %rbp
	.cfi_def_cfa_register 6
	movq	%rdi, -8(%rbp)
	nop
	popq	%rbp
	.cfi_def_cfa 7, 8
	ret
	.cfi_endproc
.LFE4092:
	.size	_ZN5boost7numeric5ublas14nonassignable_13nonassignableD2Ev, .-_ZN5boost7numeric5ublas14nonassignable_13nonassignableD2Ev
	.weak	_ZN5boost7numeric5ublas14nonassignable_13nonassignableD1Ev
	.set	_ZN5boost7numeric5ublas14nonassignable_13nonassignableD1Ev,_ZN5boost7numeric5ublas14nonassignable_13nonassignableD2Ev
	.section	.text._ZN5boost7numeric5ublas12bad_argumentC2EPKc,"axG",@progbits,_ZN5boost7numeric5ublas12bad_argumentC5EPKc,comdat
	.align 2
	.weak	_ZN5boost7numeric5ublas12bad_argumentC2EPKc
	.type	_ZN5boost7numeric5ublas12bad_argumentC2EPKc, @function
_ZN5boost7numeric5ublas12bad_argumentC2EPKc:
.LFB4141:
	.cfi_startproc
	endbr64
	pushq	%rbp
	.cfi_def_cfa_offset 16
	.cfi_offset 6, -16
	movq	%rsp, %rbp
	.cfi_def_cfa_register 6
	subq	$16, %rsp
	movq	%rdi, -8(%rbp)
	movq	%rsi, -16(%rbp)
	movq	-8(%rbp), %rax
	movq	-16(%rbp), %rdx
	movq	%rdx, %rsi
	movq	%rax, %rdi
	call	_ZNSt16invalid_argumentC2EPKc@PLT
	leaq	16+_ZTVN5boost7numeric5ublas12bad_argumentE(%rip), %rdx
	movq	-8(%rbp), %rax
	movq	%rdx, (%rax)
	nop
	leave
	.cfi_def_cfa 7, 8
	ret
	.cfi_endproc
.LFE4141:
	.size	_ZN5boost7numeric5ublas12bad_argumentC2EPKc, .-_ZN5boost7numeric5ublas12bad_argumentC2EPKc
	.weak	_ZN5boost7numeric5ublas12bad_argumentC1EPKc
	.set	_ZN5boost7numeric5ublas12bad_argumentC1EPKc,_ZN5boost7numeric5ublas12bad_argumentC2EPKc
	.section	.text._ZNSt16invalid_argumentC2ERKS_,"axG",@progbits,_ZNSt16invalid_argumentC5ERKS_,comdat
	.align 2
	.weak	_ZNSt16invalid_argumentC2ERKS_
	.type	_ZNSt16invalid_argumentC2ERKS_, @function
_ZNSt16invalid_argumentC2ERKS_:
.LFB4146:
	.cfi_startproc
	endbr64
	pushq	%rbp
	.cfi_def_cfa_offset 16
	.cfi_offset 6, -16
	movq	%rsp, %rbp
	.cfi_def_cfa_register 6
	subq	$16, %rsp
	movq	%rdi, -8(%rbp)
	movq	%rsi, -16(%rbp)
	movq	-8(%rbp), %rax
	movq	-16(%rbp), %rdx
	movq	%rdx, %rsi
	movq	%rax, %rdi
	call	_ZNSt11logic_errorC2ERKS_@PLT
	leaq	16+_ZTVSt16invalid_argument(%rip), %rdx
	movq	-8(%rbp), %rax
	movq	%rdx, (%rax)
	nop
	leave
	.cfi_def_cfa 7, 8
	ret
	.cfi_endproc
.LFE4146:
	.size	_ZNSt16invalid_argumentC2ERKS_, .-_ZNSt16invalid_argumentC2ERKS_
	.weak	_ZNSt16invalid_argumentC1ERKS_
	.set	_ZNSt16invalid_argumentC1ERKS_,_ZNSt16invalid_argumentC2ERKS_
	.section	.text._ZN5boost7numeric5ublas12bad_argumentC2ERKS2_,"axG",@progbits,_ZN5boost7numeric5ublas12bad_argumentC5ERKS2_,comdat
	.align 2
	.weak	_ZN5boost7numeric5ublas12bad_argumentC2ERKS2_
	.type	_ZN5boost7numeric5ublas12bad_argumentC2ERKS2_, @function
_ZN5boost7numeric5ublas12bad_argumentC2ERKS2_:
.LFB4148:
	.cfi_startproc
	endbr64
	pushq	%rbp
	.cfi_def_cfa_offset 16
	.cfi_offset 6, -16
	movq	%rsp, %rbp
	.cfi_def_cfa_register 6
	subq	$16, %rsp
	movq	%rdi, -8(%rbp)
	movq	%rsi, -16(%rbp)
	movq	-8(%rbp), %rax
	movq	-16(%rbp), %rdx
	movq	%rdx, %rsi
	movq	%rax, %rdi
	call	_ZNSt16invalid_argumentC2ERKS_
	leaq	16+_ZTVN5boost7numeric5ublas12bad_argumentE(%rip), %rdx
	movq	-8(%rbp), %rax
	movq	%rdx, (%rax)
	nop
	leave
	.cfi_def_cfa 7, 8
	ret
	.cfi_endproc
.LFE4148:
	.size	_ZN5boost7numeric5ublas12bad_argumentC2ERKS2_, .-_ZN5boost7numeric5ublas12bad_argumentC2ERKS2_
	.weak	_ZN5boost7numeric5ublas12bad_argumentC1ERKS2_
	.set	_ZN5boost7numeric5ublas12bad_argumentC1ERKS2_,_ZN5boost7numeric5ublas12bad_argumentC2ERKS2_
	.section	.text._ZN5boost7numeric5ublas12bad_argument5raiseEv,"axG",@progbits,_ZN5boost7numeric5ublas12bad_argument5raiseEv,comdat
	.align 2
	.weak	_ZN5boost7numeric5ublas12bad_argument5raiseEv
	.type	_ZN5boost7numeric5ublas12bad_argument5raiseEv, @function
_ZN5boost7numeric5ublas12bad_argument5raiseEv:
.LFB4143:
	.cfi_startproc
	endbr64
	pushq	%rbp
	.cfi_def_cfa_offset 16
	.cfi_offset 6, -16
	movq	%rsp, %rbp
	.cfi_def_cfa_register 6
	pushq	%rbx
	subq	$24, %rsp
	.cfi_offset 3, -24
	movq	%rdi, -24(%rbp)
	movl	$16, %edi
	call	__cxa_allocate_exception@PLT
	movq	%rax, %rbx
	movq	-24(%rbp), %rax
	movq	%rax, %rsi
	movq	%rbx, %rdi
	call	_ZN5boost7numeric5ublas12bad_argumentC1ERKS2_
	leaq	_ZN5boost7numeric5ublas12bad_argumentD1Ev(%rip), %rax
	movq	%rax, %rdx
	leaq	_ZTIN5boost7numeric5ublas12bad_argumentE(%rip), %rax
	movq	%rax, %rsi
	movq	%rbx, %rdi
	call	__cxa_throw@PLT
	.cfi_endproc
.LFE4143:
	.size	_ZN5boost7numeric5ublas12bad_argument5raiseEv, .-_ZN5boost7numeric5ublas12bad_argument5raiseEv
	.section	.text._ZN5boost7numeric5ublas8bad_sizeC2EPKc,"axG",@progbits,_ZN5boost7numeric5ublas8bad_sizeC5EPKc,comdat
	.align 2
	.weak	_ZN5boost7numeric5ublas8bad_sizeC2EPKc
	.type	_ZN5boost7numeric5ublas8bad_sizeC2EPKc, @function
_ZN5boost7numeric5ublas8bad_sizeC2EPKc:
.LFB4151:
	.cfi_startproc
	endbr64
	pushq	%rbp
	.cfi_def_cfa_offset 16
	.cfi_offset 6, -16
	movq	%rsp, %rbp
	.cfi_def_cfa_register 6
	subq	$16, %rsp
	movq	%rdi, -8(%rbp)
	movq	%rsi, -16(%rbp)
	movq	-8(%rbp), %rax
	movq	-16(%rbp), %rdx
	movq	%rdx, %rsi
	movq	%rax, %rdi
	call	_ZNSt12domain_errorC2EPKc@PLT
	leaq	16+_ZTVN5boost7numeric5ublas8bad_sizeE(%rip), %rdx
	movq	-8(%rbp), %rax
	movq	%rdx, (%rax)
	nop
	leave
	.cfi_def_cfa 7, 8
	ret
	.cfi_endproc
.LFE4151:
	.size	_ZN5boost7numeric5ublas8bad_sizeC2EPKc, .-_ZN5boost7numeric5ublas8bad_sizeC2EPKc
	.weak	_ZN5boost7numeric5ublas8bad_sizeC1EPKc
	.set	_ZN5boost7numeric5ublas8bad_sizeC1EPKc,_ZN5boost7numeric5ublas8bad_sizeC2EPKc
	.section	.text._ZNSt12domain_errorC2ERKS_,"axG",@progbits,_ZNSt12domain_errorC5ERKS_,comdat
	.align 2
	.weak	_ZNSt12domain_errorC2ERKS_
	.type	_ZNSt12domain_errorC2ERKS_, @function
_ZNSt12domain_errorC2ERKS_:
.LFB4156:
	.cfi_startproc
	endbr64
	pushq	%rbp
	.cfi_def_cfa_offset 16
	.cfi_offset 6, -16
	movq	%rsp, %rbp
	.cfi_def_cfa_register 6
	subq	$16, %rsp
	movq	%rdi, -8(%rbp)
	movq	%rsi, -16(%rbp)
	movq	-8(%rbp), %rax
	movq	-16(%rbp), %rdx
	movq	%rdx, %rsi
	movq	%rax, %rdi
	call	_ZNSt11logic_errorC2ERKS_@PLT
	leaq	16+_ZTVSt12domain_error(%rip), %rdx
	movq	-8(%rbp), %rax
	movq	%rdx, (%rax)
	nop
	leave
	.cfi_def_cfa 7, 8
	ret
	.cfi_endproc
.LFE4156:
	.size	_ZNSt12domain_errorC2ERKS_, .-_ZNSt12domain_errorC2ERKS_
	.weak	_ZNSt12domain_errorC1ERKS_
	.set	_ZNSt12domain_errorC1ERKS_,_ZNSt12domain_errorC2ERKS_
	.section	.text._ZN5boost7numeric5ublas8bad_sizeC2ERKS2_,"axG",@progbits,_ZN5boost7numeric5ublas8bad_sizeC5ERKS2_,comdat
	.align 2
	.weak	_ZN5boost7numeric5ublas8bad_sizeC2ERKS2_
	.type	_ZN5boost7numeric5ublas8bad_sizeC2ERKS2_, @function
_ZN5boost7numeric5ublas8bad_sizeC2ERKS2_:
.LFB4158:
	.cfi_startproc
	endbr64
	pushq	%rbp
	.cfi_def_cfa_offset 16
	.cfi_offset 6, -16
	movq	%rsp, %rbp
	.cfi_def_cfa_register 6
	subq	$16, %rsp
	movq	%rdi, -8(%rbp)
	movq	%rsi, -16(%rbp)
	movq	-8(%rbp), %rax
	movq	-16(%rbp), %rdx
	movq	%rdx, %rsi
	movq	%rax, %rdi
	call	_ZNSt12domain_errorC2ERKS_
	leaq	16+_ZTVN5boost7numeric5ublas8bad_sizeE(%rip), %rdx
	movq	-8(%rbp), %rax
	movq	%rdx, (%rax)
	nop
	leave
	.cfi_def_cfa 7, 8
	ret
	.cfi_endproc
.LFE4158:
	.size	_ZN5boost7numeric5ublas8bad_sizeC2ERKS2_, .-_ZN5boost7numeric5ublas8bad_sizeC2ERKS2_
	.weak	_ZN5boost7numeric5ublas8bad_sizeC1ERKS2_
	.set	_ZN5boost7numeric5ublas8bad_sizeC1ERKS2_,_ZN5boost7numeric5ublas8bad_sizeC2ERKS2_
	.section	.text._ZN5boost7numeric5ublas8bad_size5raiseEv,"axG",@progbits,_ZN5boost7numeric5ublas8bad_size5raiseEv,comdat
	.align 2
	.weak	_ZN5boost7numeric5ublas8bad_size5raiseEv
	.type	_ZN5boost7numeric5ublas8bad_size5raiseEv, @function
_ZN5boost7numeric5ublas8bad_size5raiseEv:
.LFB4153:
	.cfi_startproc
	endbr64
	pushq	%rbp
	.cfi_def_cfa_offset 16
	.cfi_offset 6, -16
	movq	%rsp, %rbp
	.cfi_def_cfa_register 6
	pushq	%rbx
	subq	$24, %rsp
	.cfi_offset 3, -24
	movq	%rdi, -24(%rbp)
	movl	$16, %edi
	call	__cxa_allocate_exception@PLT
	movq	%rax, %rbx
	movq	-24(%rbp), %rax
	movq	%rax, %rsi
	movq	%rbx, %rdi
	call	_ZN5boost7numeric5ublas8bad_sizeC1ERKS2_
	leaq	_ZN5boost7numeric5ublas8bad_sizeD1Ev(%rip), %rax
	movq	%rax, %rdx
	leaq	_ZTIN5boost7numeric5ublas8bad_sizeE(%rip), %rax
	movq	%rax, %rsi
	movq	%rbx, %rdi
	call	__cxa_throw@PLT
	.cfi_endproc
.LFE4153:
	.size	_ZN5boost7numeric5ublas8bad_size5raiseEv, .-_ZN5boost7numeric5ublas8bad_size5raiseEv
	.section	.text._ZN5boost7numeric5ublas9bad_indexC2EPKc,"axG",@progbits,_ZN5boost7numeric5ublas9bad_indexC5EPKc,comdat
	.align 2
	.weak	_ZN5boost7numeric5ublas9bad_indexC2EPKc
	.type	_ZN5boost7numeric5ublas9bad_indexC2EPKc, @function
_ZN5boost7numeric5ublas9bad_indexC2EPKc:
.LFB4161:
	.cfi_startproc
	endbr64
	pushq	%rbp
	.cfi_def_cfa_offset 16
	.cfi_offset 6, -16
	movq	%rsp, %rbp
	.cfi_def_cfa_register 6
	subq	$16, %rsp
	movq	%rdi, -8(%rbp)
	movq	%rsi, -16(%rbp)
	movq	-8(%rbp), %rax
	movq	-16(%rbp), %rdx
	movq	%rdx, %rsi
	movq	%rax, %rdi
	call	_ZNSt12out_of_rangeC2EPKc@PLT
	leaq	16+_ZTVN5boost7numeric5ublas9bad_indexE(%rip), %rdx
	movq	-8(%rbp), %rax
	movq	%rdx, (%rax)
	nop
	leave
	.cfi_def_cfa 7, 8
	ret
	.cfi_endproc
.LFE4161:
	.size	_ZN5boost7numeric5ublas9bad_indexC2EPKc, .-_ZN5boost7numeric5ublas9bad_indexC2EPKc
	.weak	_ZN5boost7numeric5ublas9bad_indexC1EPKc
	.set	_ZN5boost7numeric5ublas9bad_indexC1EPKc,_ZN5boost7numeric5ublas9bad_indexC2EPKc
	.section	.text._ZNSt12out_of_rangeC2ERKS_,"axG",@progbits,_ZNSt12out_of_rangeC5ERKS_,comdat
	.align 2
	.weak	_ZNSt12out_of_rangeC2ERKS_
	.type	_ZNSt12out_of_rangeC2ERKS_, @function
_ZNSt12out_of_rangeC2ERKS_:
.LFB4166:
	.cfi_startproc
	endbr64
	pushq	%rbp
	.cfi_def_cfa_offset 16
	.cfi_offset 6, -16
	movq	%rsp, %rbp
	.cfi_def_cfa_register 6
	subq	$16, %rsp
	movq	%rdi, -8(%rbp)
	movq	%rsi, -16(%rbp)
	movq	-8(%rbp), %rax
	movq	-16(%rbp), %rdx
	movq	%rdx, %rsi
	movq	%rax, %rdi
	call	_ZNSt11logic_errorC2ERKS_@PLT
	leaq	16+_ZTVSt12out_of_range(%rip), %rdx
	movq	-8(%rbp), %rax
	movq	%rdx, (%rax)
	nop
	leave
	.cfi_def_cfa 7, 8
	ret
	.cfi_endproc
.LFE4166:
	.size	_ZNSt12out_of_rangeC2ERKS_, .-_ZNSt12out_of_rangeC2ERKS_
	.weak	_ZNSt12out_of_rangeC1ERKS_
	.set	_ZNSt12out_of_rangeC1ERKS_,_ZNSt12out_of_rangeC2ERKS_
	.section	.text._ZN5boost7numeric5ublas9bad_indexC2ERKS2_,"axG",@progbits,_ZN5boost7numeric5ublas9bad_indexC5ERKS2_,comdat
	.align 2
	.weak	_ZN5boost7numeric5ublas9bad_indexC2ERKS2_
	.type	_ZN5boost7numeric5ublas9bad_indexC2ERKS2_, @function
_ZN5boost7numeric5ublas9bad_indexC2ERKS2_:
.LFB4168:
	.cfi_startproc
	endbr64
	pushq	%rbp
	.cfi_def_cfa_offset 16
	.cfi_offset 6, -16
	movq	%rsp, %rbp
	.cfi_def_cfa_register 6
	subq	$16, %rsp
	movq	%rdi, -8(%rbp)
	movq	%rsi, -16(%rbp)
	movq	-8(%rbp), %rax
	movq	-16(%rbp), %rdx
	movq	%rdx, %rsi
	movq	%rax, %rdi
	call	_ZNSt12out_of_rangeC2ERKS_
	leaq	16+_ZTVN5boost7numeric5ublas9bad_indexE(%rip), %rdx
	movq	-8(%rbp), %rax
	movq	%rdx, (%rax)
	nop
	leave
	.cfi_def_cfa 7, 8
	ret
	.cfi_endproc
.LFE4168:
	.size	_ZN5boost7numeric5ublas9bad_indexC2ERKS2_, .-_ZN5boost7numeric5ublas9bad_indexC2ERKS2_
	.weak	_ZN5boost7numeric5ublas9bad_indexC1ERKS2_
	.set	_ZN5boost7numeric5ublas9bad_indexC1ERKS2_,_ZN5boost7numeric5ublas9bad_indexC2ERKS2_
	.section	.text._ZN5boost7numeric5ublas9bad_index5raiseEv,"axG",@progbits,_ZN5boost7numeric5ublas9bad_index5raiseEv,comdat
	.align 2
	.weak	_ZN5boost7numeric5ublas9bad_index5raiseEv
	.type	_ZN5boost7numeric5ublas9bad_index5raiseEv, @function
_ZN5boost7numeric5ublas9bad_index5raiseEv:
.LFB4163:
	.cfi_startproc
	endbr64
	pushq	%rbp
	.cfi_def_cfa_offset 16
	.cfi_offset 6, -16
	movq	%rsp, %rbp
	.cfi_def_cfa_register 6
	pushq	%rbx
	subq	$24, %rsp
	.cfi_offset 3, -24
	movq	%rdi, -24(%rbp)
	movl	$16, %edi
	call	__cxa_allocate_exception@PLT
	movq	%rax, %rbx
	movq	-24(%rbp), %rax
	movq	%rax, %rsi
	movq	%rbx, %rdi
	call	_ZN5boost7numeric5ublas9bad_indexC1ERKS2_
	leaq	_ZN5boost7numeric5ublas9bad_indexD1Ev(%rip), %rax
	movq	%rax, %rdx
	leaq	_ZTIN5boost7numeric5ublas9bad_indexE(%rip), %rax
	movq	%rax, %rsi
	movq	%rbx, %rdi
	call	__cxa_throw@PLT
	.cfi_endproc
.LFE4163:
	.size	_ZN5boost7numeric5ublas9bad_index5raiseEv, .-_ZN5boost7numeric5ublas9bad_index5raiseEv
	.section	.rodata
	.align 8
	.type	_ZN5boost6detail15aligned_storageL22alignment_of_max_alignE, @object
	.size	_ZN5boost6detail15aligned_storageL22alignment_of_max_alignE, 8
_ZN5boost6detail15aligned_storageL22alignment_of_max_alignE:
	.quad	16
	.section	.text._ZSt4setwi,"axG",@progbits,_ZSt4setwi,comdat
	.weak	_ZSt4setwi
	.type	_ZSt4setwi, @function
_ZSt4setwi:
.LFB7813:
	.cfi_startproc
	endbr64
	pushq	%rbp
	.cfi_def_cfa_offset 16
	.cfi_offset 6, -16
	movq	%rsp, %rbp
	.cfi_def_cfa_register 6
	movl	%edi, -4(%rbp)
	movl	-4(%rbp), %eax
	popq	%rbp
	.cfi_def_cfa 7, 8
	ret
	.cfi_endproc
.LFE7813:
	.size	_ZSt4setwi, .-_ZSt4setwi
	.section	.text._ZNKSt6chrono8durationIlSt5ratioILl1ELl1000000000EEE5countEv,"axG",@progbits,_ZNKSt6chrono8durationIlSt5ratioILl1ELl1000000000EEE5countEv,comdat
	.align 2
	.weak	_ZNKSt6chrono8durationIlSt5ratioILl1ELl1000000000EEE5countEv
	.type	_ZNKSt6chrono8durationIlSt5ratioILl1ELl1000000000EEE5countEv, @function
_ZNKSt6chrono8durationIlSt5ratioILl1ELl1000000000EEE5countEv:
.LFB7896:
	.cfi_startproc
	endbr64
	pushq	%rbp
	.cfi_def_cfa_offset 16
	.cfi_offset 6, -16
	movq	%rsp, %rbp
	.cfi_def_cfa_register 6
	movq	%rdi, -8(%rbp)
	movq	-8(%rbp), %rax
	movq	(%rax), %rax
	popq	%rbp
	.cfi_def_cfa 7, 8
	ret
	.cfi_endproc
.LFE7896:
	.size	_ZNKSt6chrono8durationIlSt5ratioILl1ELl1000000000EEE5countEv, .-_ZNKSt6chrono8durationIlSt5ratioILl1ELl1000000000EEE5countEv
	.section	.text._ZNSt6chrono8durationIlSt5ratioILl1ELl1000000000EEEC1IlvEERKT_,"axG",@progbits,_ZNSt6chrono8durationIlSt5ratioILl1ELl1000000000EEEC1IlvEERKT_,comdat
	.align 2
	.weak	_ZNSt6chrono8durationIlSt5ratioILl1ELl1000000000EEEC1IlvEERKT_
	.type	_ZNSt6chrono8durationIlSt5ratioILl1ELl1000000000EEEC1IlvEERKT_, @function
_ZNSt6chrono8durationIlSt5ratioILl1ELl1000000000EEEC1IlvEERKT_:
.LFB7901:
	.cfi_startproc
	endbr64
	pushq	%rbp
	.cfi_def_cfa_offset 16
	.cfi_offset 6, -16
	movq	%rsp, %rbp
	.cfi_def_cfa_register 6
	movq	%rdi, -8(%rbp)
	movq	%rsi, -16(%rbp)
	movq	-16(%rbp), %rax
	movq	(%rax), %rdx
	movq	-8(%rbp), %rax
	movq	%rdx, (%rax)
	nop
	popq	%rbp
	.cfi_def_cfa 7, 8
	ret
	.cfi_endproc
.LFE7901:
	.size	_ZNSt6chrono8durationIlSt5ratioILl1ELl1000000000EEEC1IlvEERKT_, .-_ZNSt6chrono8durationIlSt5ratioILl1ELl1000000000EEEC1IlvEERKT_
	.section	.text._ZNSt6chrono3_V212system_clock9to_time_tERKNS_10time_pointIS1_NS_8durationIlSt5ratioILl1ELl1000000000EEEEEE,"axG",@progbits,_ZNSt6chrono3_V212system_clock9to_time_tERKNS_10time_pointIS1_NS_8durationIlSt5ratioILl1ELl1000000000EEEEEE,comdat
	.weak	_ZNSt6chrono3_V212system_clock9to_time_tERKNS_10time_pointIS1_NS_8durationIlSt5ratioILl1ELl1000000000EEEEEE
	.type	_ZNSt6chrono3_V212system_clock9to_time_tERKNS_10time_pointIS1_NS_8durationIlSt5ratioILl1ELl1000000000EEEEEE, @function
_ZNSt6chrono3_V212system_clock9to_time_tERKNS_10time_pointIS1_NS_8durationIlSt5ratioILl1ELl1000000000EEEEEE:
.LFB7904:
	.cfi_startproc
	.cfi_personality 0x9b,DW.ref.__gxx_personality_v0
	.cfi_lsda 0x1b,.LLSDA7904
	endbr64
	pushq	%rbp
	.cfi_def_cfa_offset 16
	.cfi_offset 6, -16
	movq	%rsp, %rbp
	.cfi_def_cfa_register 6
	subq	$48, %rsp
	movq	%rdi, -40(%rbp)
	movq	%fs:40, %rax
	movq	%rax, -8(%rbp)
	xorl	%eax, %eax
	movq	-40(%rbp), %rax
	movq	%rax, %rdi
	call	_ZNKSt6chrono10time_pointINS_3_V212system_clockENS_8durationIlSt5ratioILl1ELl1000000000EEEEE16time_since_epochEv
	movq	%rax, -24(%rbp)
	leaq	-24(%rbp), %rax
	movq	%rax, %rdi
	call	_ZNSt6chrono13duration_castINS_8durationIlSt5ratioILl1ELl1EEEElS2_ILl1ELl1000000000EEEENSt9enable_ifIXsrNS_13__is_durationIT_EE5valueES8_E4typeERKNS1_IT0_T1_EE
	movq	%rax, -16(%rbp)
	leaq	-16(%rbp), %rax
	movq	%rax, %rdi
	call	_ZNKSt6chrono8durationIlSt5ratioILl1ELl1EEE5countEv
	movq	-8(%rbp), %rdx
	subq	%fs:40, %rdx
	je	.L27
	call	__stack_chk_fail@PLT
.L27:
	leave
	.cfi_def_cfa 7, 8
	ret
	.cfi_endproc
.LFE7904:
	.globl	__gxx_personality_v0
	.section	.gcc_except_table._ZNSt6chrono3_V212system_clock9to_time_tERKNS_10time_pointIS1_NS_8durationIlSt5ratioILl1ELl1000000000EEEEEE,"aG",@progbits,_ZNSt6chrono3_V212system_clock9to_time_tERKNS_10time_pointIS1_NS_8durationIlSt5ratioILl1ELl1000000000EEEEEE,comdat
.LLSDA7904:
	.byte	0xff
	.byte	0xff
	.byte	0x1
	.uleb128 .LLSDACSE7904-.LLSDACSB7904
.LLSDACSB7904:
.LLSDACSE7904:
	.section	.text._ZNSt6chrono3_V212system_clock9to_time_tERKNS_10time_pointIS1_NS_8durationIlSt5ratioILl1ELl1000000000EEEEEE,"axG",@progbits,_ZNSt6chrono3_V212system_clock9to_time_tERKNS_10time_pointIS1_NS_8durationIlSt5ratioILl1ELl1000000000EEEEEE,comdat
	.size	_ZNSt6chrono3_V212system_clock9to_time_tERKNS_10time_pointIS1_NS_8durationIlSt5ratioILl1ELl1000000000EEEEEE, .-_ZNSt6chrono3_V212system_clock9to_time_tERKNS_10time_pointIS1_NS_8durationIlSt5ratioILl1ELl1000000000EEEEEE
	.section	.text._ZNSt6chrono8durationIlSt5ratioILl1ELl1EEEC1IlvEERKT_,"axG",@progbits,_ZNSt6chrono8durationIlSt5ratioILl1ELl1EEEC1IlvEERKT_,comdat
	.align 2
	.weak	_ZNSt6chrono8durationIlSt5ratioILl1ELl1EEEC1IlvEERKT_
	.type	_ZNSt6chrono8durationIlSt5ratioILl1ELl1EEEC1IlvEERKT_, @function
_ZNSt6chrono8durationIlSt5ratioILl1ELl1EEEC1IlvEERKT_:
.LFB7922:
	.cfi_startproc
	endbr64
	pushq	%rbp
	.cfi_def_cfa_offset 16
	.cfi_offset 6, -16
	movq	%rsp, %rbp
	.cfi_def_cfa_register 6
	movq	%rdi, -8(%rbp)
	movq	%rsi, -16(%rbp)
	movq	-16(%rbp), %rax
	movq	(%rax), %rdx
	movq	-8(%rbp), %rax
	movq	%rdx, (%rax)
	nop
	popq	%rbp
	.cfi_def_cfa 7, 8
	ret
	.cfi_endproc
.LFE7922:
	.size	_ZNSt6chrono8durationIlSt5ratioILl1ELl1EEEC1IlvEERKT_, .-_ZNSt6chrono8durationIlSt5ratioILl1ELl1EEEC1IlvEERKT_
	.section	.rodata
.LC0:
	.string	"[["
.LC1:
	.string	" ["
.LC2:
	.string	"]]"
.LC3:
	.string	"]"
	.text
	.globl	_ZlsRSoRKN5boost7numeric5ublas6matrixIdNS2_15basic_row_majorImlEENS2_15unbounded_arrayIdSaIdEEEEE
	.type	_ZlsRSoRKN5boost7numeric5ublas6matrixIdNS2_15basic_row_majorImlEENS2_15unbounded_arrayIdSaIdEEEEE, @function
_ZlsRSoRKN5boost7numeric5ublas6matrixIdNS2_15basic_row_majorImlEENS2_15unbounded_arrayIdSaIdEEEEE:
.LFB7926:
	.cfi_startproc
	endbr64
	pushq	%rbp
	.cfi_def_cfa_offset 16
	.cfi_offset 6, -16
	movq	%rsp, %rbp
	.cfi_def_cfa_register 6
	pushq	%rbx
	subq	$40, %rsp
	.cfi_offset 3, -24
	movq	%rdi, -40(%rbp)
	movq	%rsi, -48(%rbp)
	movl	$0, -24(%rbp)
	jmp	.L30
.L38:
	cmpl	$0, -24(%rbp)
	jne	.L31
	leaq	.LC0(%rip), %rax
	jmp	.L32
.L31:
	leaq	.LC1(%rip), %rax
.L32:
	movq	-40(%rbp), %rdx
	movq	%rax, %rsi
	movq	%rdx, %rdi
	call	_ZStlsISt11char_traitsIcEERSt13basic_ostreamIcT_ES5_PKc@PLT
	movl	$0, -20(%rbp)
	jmp	.L33
.L34:
	movl	$4, %edi
	call	_ZSt4setwi
	movl	%eax, %edx
	movq	-40(%rbp), %rax
	movl	%edx, %esi
	movq	%rax, %rdi
	call	_ZStlsIcSt11char_traitsIcEERSt13basic_ostreamIT_T0_ES6_St5_Setw@PLT
	movl	-20(%rbp), %eax
	movslq	%eax, %rdx
	movl	-24(%rbp), %eax
	movslq	%eax, %rcx
	movq	-48(%rbp), %rax
	movq	%rcx, %rsi
	movq	%rax, %rdi
	call	_ZNK5boost7numeric5ublas6matrixIdNS1_15basic_row_majorImlEENS1_15unbounded_arrayIdSaIdEEEEclEmm
	movq	(%rax), %rdx
	movq	-40(%rbp), %rax
	movq	%rdx, %xmm0
	movq	%rax, %rdi
	call	_ZNSolsEd@PLT
	movl	$0, %edi
	call	_ZSt4setwi
	movl	%eax, %edx
	movq	-40(%rbp), %rax
	movl	%edx, %esi
	movq	%rax, %rdi
	call	_ZStlsIcSt11char_traitsIcEERSt13basic_ostreamIT_T0_ES6_St5_Setw@PLT
	addl	$1, -20(%rbp)
.L33:
	movl	-20(%rbp), %eax
	movslq	%eax, %rbx
	movq	-48(%rbp), %rax
	movq	%rax, %rdi
	call	_ZNK5boost7numeric5ublas6matrixIdNS1_15basic_row_majorImlEENS1_15unbounded_arrayIdSaIdEEEE5size2Ev
	cmpq	%rax, %rbx
	setb	%al
	testb	%al, %al
	jne	.L34
	movl	-24(%rbp), %eax
	movslq	%eax, %rbx
	movq	-48(%rbp), %rax
	movq	%rax, %rdi
	call	_ZNK5boost7numeric5ublas6matrixIdNS1_15basic_row_majorImlEENS1_15unbounded_arrayIdSaIdEEEE5size1Ev
	subq	$1, %rax
	cmpq	%rax, %rbx
	jne	.L35
	leaq	.LC2(%rip), %rax
	jmp	.L36
.L35:
	leaq	.LC3(%rip), %rax
.L36:
	movq	-40(%rbp), %rdx
	movq	%rax, %rsi
	movq	%rdx, %rdi
	call	_ZStlsISt11char_traitsIcEERSt13basic_ostreamIcT_ES5_PKc@PLT
	movl	-24(%rbp), %eax
	movslq	%eax, %rbx
	movq	-48(%rbp), %rax
	movq	%rax, %rdi
	call	_ZNK5boost7numeric5ublas6matrixIdNS1_15basic_row_majorImlEENS1_15unbounded_arrayIdSaIdEEEE5size1Ev
	subq	$1, %rax
	cmpq	%rax, %rbx
	setne	%al
	testb	%al, %al
	je	.L37
	movq	-40(%rbp), %rax
	movq	_ZSt4endlIcSt11char_traitsIcEERSt13basic_ostreamIT_T0_ES6_@GOTPCREL(%rip), %rdx
	movq	%rdx, %rsi
	movq	%rax, %rdi
	call	_ZNSolsEPFRSoS_E@PLT
.L37:
	addl	$1, -24(%rbp)
.L30:
	movl	-24(%rbp), %eax
	movslq	%eax, %rbx
	movq	-48(%rbp), %rax
	movq	%rax, %rdi
	call	_ZNK5boost7numeric5ublas6matrixIdNS1_15basic_row_majorImlEENS1_15unbounded_arrayIdSaIdEEEE5size1Ev
	cmpq	%rax, %rbx
	setb	%al
	testb	%al, %al
	jne	.L38
	movq	-40(%rbp), %rax
	movq	-8(%rbp), %rbx
	leave
	.cfi_def_cfa 7, 8
	ret
	.cfi_endproc
.LFE7926:
	.size	_ZlsRSoRKN5boost7numeric5ublas6matrixIdNS2_15basic_row_majorImlEENS2_15unbounded_arrayIdSaIdEEEEE, .-_ZlsRSoRKN5boost7numeric5ublas6matrixIdNS2_15basic_row_majorImlEENS2_15unbounded_arrayIdSaIdEEEEE
	.section	.text._ZN5boost7numeric5ublas17matrix_expressionINS1_6matrixIdNS1_15basic_row_majorImlEENS1_15unbounded_arrayIdSaIdEEEEEED2Ev,"axG",@progbits,_ZN5boost7numeric5ublas17matrix_expressionINS1_6matrixIdNS1_15basic_row_majorImlEENS1_15unbounded_arrayIdSaIdEEEEEED5Ev,comdat
	.align 2
	.weak	_ZN5boost7numeric5ublas17matrix_expressionINS1_6matrixIdNS1_15basic_row_majorImlEENS1_15unbounded_arrayIdSaIdEEEEEED2Ev
	.type	_ZN5boost7numeric5ublas17matrix_expressionINS1_6matrixIdNS1_15basic_row_majorImlEENS1_15unbounded_arrayIdSaIdEEEEEED2Ev, @function
_ZN5boost7numeric5ublas17matrix_expressionINS1_6matrixIdNS1_15basic_row_majorImlEENS1_15unbounded_arrayIdSaIdEEEEEED2Ev:
.LFB7931:
	.cfi_startproc
	endbr64
	pushq	%rbp
	.cfi_def_cfa_offset 16
	.cfi_offset 6, -16
	movq	%rsp, %rbp
	.cfi_def_cfa_register 6
	subq	$16, %rsp
	movq	%rdi, -8(%rbp)
	movq	-8(%rbp), %rax
	movq	%rax, %rdi
	call	_ZN5boost7numeric5ublas16ublas_expressionINS1_6matrixIdNS1_15basic_row_majorImlEENS1_15unbounded_arrayIdSaIdEEEEEED2Ev
	nop
	leave
	.cfi_def_cfa 7, 8
	ret
	.cfi_endproc
.LFE7931:
	.size	_ZN5boost7numeric5ublas17matrix_expressionINS1_6matrixIdNS1_15basic_row_majorImlEENS1_15unbounded_arrayIdSaIdEEEEEED2Ev, .-_ZN5boost7numeric5ublas17matrix_expressionINS1_6matrixIdNS1_15basic_row_majorImlEENS1_15unbounded_arrayIdSaIdEEEEEED2Ev
	.weak	_ZN5boost7numeric5ublas17matrix_expressionINS1_6matrixIdNS1_15basic_row_majorImlEENS1_15unbounded_arrayIdSaIdEEEEEED1Ev
	.set	_ZN5boost7numeric5ublas17matrix_expressionINS1_6matrixIdNS1_15basic_row_majorImlEENS1_15unbounded_arrayIdSaIdEEEEEED1Ev,_ZN5boost7numeric5ublas17matrix_expressionINS1_6matrixIdNS1_15basic_row_majorImlEENS1_15unbounded_arrayIdSaIdEEEEEED2Ev
	.section	.text._ZN5boost7numeric5ublas16matrix_containerINS1_6matrixIdNS1_15basic_row_majorImlEENS1_15unbounded_arrayIdSaIdEEEEEED2Ev,"axG",@progbits,_ZN5boost7numeric5ublas16matrix_containerINS1_6matrixIdNS1_15basic_row_majorImlEENS1_15unbounded_arrayIdSaIdEEEEEED5Ev,comdat
	.align 2
	.weak	_ZN5boost7numeric5ublas16matrix_containerINS1_6matrixIdNS1_15basic_row_majorImlEENS1_15unbounded_arrayIdSaIdEEEEEED2Ev
	.type	_ZN5boost7numeric5ublas16matrix_containerINS1_6matrixIdNS1_15basic_row_majorImlEENS1_15unbounded_arrayIdSaIdEEEEEED2Ev, @function
_ZN5boost7numeric5ublas16matrix_containerINS1_6matrixIdNS1_15basic_row_majorImlEENS1_15unbounded_arrayIdSaIdEEEEEED2Ev:
.LFB7933:
	.cfi_startproc
	endbr64
	pushq	%rbp
	.cfi_def_cfa_offset 16
	.cfi_offset 6, -16
	movq	%rsp, %rbp
	.cfi_def_cfa_register 6
	subq	$16, %rsp
	movq	%rdi, -8(%rbp)
	movq	-8(%rbp), %rax
	movq	%rax, %rdi
	call	_ZN5boost7numeric5ublas17matrix_expressionINS1_6matrixIdNS1_15basic_row_majorImlEENS1_15unbounded_arrayIdSaIdEEEEEED2Ev
	nop
	leave
	.cfi_def_cfa 7, 8
	ret
	.cfi_endproc
.LFE7933:
	.size	_ZN5boost7numeric5ublas16matrix_containerINS1_6matrixIdNS1_15basic_row_majorImlEENS1_15unbounded_arrayIdSaIdEEEEEED2Ev, .-_ZN5boost7numeric5ublas16matrix_containerINS1_6matrixIdNS1_15basic_row_majorImlEENS1_15unbounded_arrayIdSaIdEEEEEED2Ev
	.weak	_ZN5boost7numeric5ublas16matrix_containerINS1_6matrixIdNS1_15basic_row_majorImlEENS1_15unbounded_arrayIdSaIdEEEEEED1Ev
	.set	_ZN5boost7numeric5ublas16matrix_containerINS1_6matrixIdNS1_15basic_row_majorImlEENS1_15unbounded_arrayIdSaIdEEEEEED1Ev,_ZN5boost7numeric5ublas16matrix_containerINS1_6matrixIdNS1_15basic_row_majorImlEENS1_15unbounded_arrayIdSaIdEEEEEED2Ev
	.section	.text._ZN5boost7numeric5ublas6matrixIdNS1_15basic_row_majorImlEENS1_15unbounded_arrayIdSaIdEEEED2Ev,"axG",@progbits,_ZN5boost7numeric5ublas6matrixIdNS1_15basic_row_majorImlEENS1_15unbounded_arrayIdSaIdEEEED5Ev,comdat
	.align 2
	.weak	_ZN5boost7numeric5ublas6matrixIdNS1_15basic_row_majorImlEENS1_15unbounded_arrayIdSaIdEEEED2Ev
	.type	_ZN5boost7numeric5ublas6matrixIdNS1_15basic_row_majorImlEENS1_15unbounded_arrayIdSaIdEEEED2Ev, @function
_ZN5boost7numeric5ublas6matrixIdNS1_15basic_row_majorImlEENS1_15unbounded_arrayIdSaIdEEEED2Ev:
.LFB7935:
	.cfi_startproc
	endbr64
	pushq	%rbp
	.cfi_def_cfa_offset 16
	.cfi_offset 6, -16
	movq	%rsp, %rbp
	.cfi_def_cfa_register 6
	subq	$16, %rsp
	movq	%rdi, -8(%rbp)
	movq	-8(%rbp), %rax
	addq	$16, %rax
	movq	%rax, %rdi
	call	_ZN5boost7numeric5ublas15unbounded_arrayIdSaIdEED1Ev
	movq	-8(%rbp), %rax
	movq	%rax, %rdi
	call	_ZN5boost7numeric5ublas16matrix_containerINS1_6matrixIdNS1_15basic_row_majorImlEENS1_15unbounded_arrayIdSaIdEEEEEED2Ev
	nop
	leave
	.cfi_def_cfa 7, 8
	ret
	.cfi_endproc
.LFE7935:
	.size	_ZN5boost7numeric5ublas6matrixIdNS1_15basic_row_majorImlEENS1_15unbounded_arrayIdSaIdEEEED2Ev, .-_ZN5boost7numeric5ublas6matrixIdNS1_15basic_row_majorImlEENS1_15unbounded_arrayIdSaIdEEEED2Ev
	.weak	_ZN5boost7numeric5ublas6matrixIdNS1_15basic_row_majorImlEENS1_15unbounded_arrayIdSaIdEEEED1Ev
	.set	_ZN5boost7numeric5ublas6matrixIdNS1_15basic_row_majorImlEENS1_15unbounded_arrayIdSaIdEEEED1Ev,_ZN5boost7numeric5ublas6matrixIdNS1_15basic_row_majorImlEENS1_15unbounded_arrayIdSaIdEEEED2Ev
	.section	.text._ZN5boost7numeric5ublas17matrix_expressionINS1_20matrix_matrix_binaryINS1_6matrixIdNS1_15basic_row_majorImlEENS1_15unbounded_arrayIdSaIdEEEEESA_NS1_18matrix_matrix_prodISA_SA_dEEEEED2Ev,"axG",@progbits,_ZN5boost7numeric5ublas17matrix_expressionINS1_20matrix_matrix_binaryINS1_6matrixIdNS1_15basic_row_majorImlEENS1_15unbounded_arrayIdSaIdEEEEESA_NS1_18matrix_matrix_prodISA_SA_dEEEEED5Ev,comdat
	.align 2
	.weak	_ZN5boost7numeric5ublas17matrix_expressionINS1_20matrix_matrix_binaryINS1_6matrixIdNS1_15basic_row_majorImlEENS1_15unbounded_arrayIdSaIdEEEEESA_NS1_18matrix_matrix_prodISA_SA_dEEEEED2Ev
	.type	_ZN5boost7numeric5ublas17matrix_expressionINS1_20matrix_matrix_binaryINS1_6matrixIdNS1_15basic_row_majorImlEENS1_15unbounded_arrayIdSaIdEEEEESA_NS1_18matrix_matrix_prodISA_SA_dEEEEED2Ev, @function
_ZN5boost7numeric5ublas17matrix_expressionINS1_20matrix_matrix_binaryINS1_6matrixIdNS1_15basic_row_majorImlEENS1_15unbounded_arrayIdSaIdEEEEESA_NS1_18matrix_matrix_prodISA_SA_dEEEEED2Ev:
.LFB7939:
	.cfi_startproc
	endbr64
	pushq	%rbp
	.cfi_def_cfa_offset 16
	.cfi_offset 6, -16
	movq	%rsp, %rbp
	.cfi_def_cfa_register 6
	subq	$16, %rsp
	movq	%rdi, -8(%rbp)
	movq	-8(%rbp), %rax
	movq	%rax, %rdi
	call	_ZN5boost7numeric5ublas16ublas_expressionINS1_20matrix_matrix_binaryINS1_6matrixIdNS1_15basic_row_majorImlEENS1_15unbounded_arrayIdSaIdEEEEESA_NS1_18matrix_matrix_prodISA_SA_dEEEEED2Ev
	nop
	leave
	.cfi_def_cfa 7, 8
	ret
	.cfi_endproc
.LFE7939:
	.size	_ZN5boost7numeric5ublas17matrix_expressionINS1_20matrix_matrix_binaryINS1_6matrixIdNS1_15basic_row_majorImlEENS1_15unbounded_arrayIdSaIdEEEEESA_NS1_18matrix_matrix_prodISA_SA_dEEEEED2Ev, .-_ZN5boost7numeric5ublas17matrix_expressionINS1_20matrix_matrix_binaryINS1_6matrixIdNS1_15basic_row_majorImlEENS1_15unbounded_arrayIdSaIdEEEEESA_NS1_18matrix_matrix_prodISA_SA_dEEEEED2Ev
	.weak	_ZN5boost7numeric5ublas17matrix_expressionINS1_20matrix_matrix_binaryINS1_6matrixIdNS1_15basic_row_majorImlEENS1_15unbounded_arrayIdSaIdEEEEESA_NS1_18matrix_matrix_prodISA_SA_dEEEEED1Ev
	.set	_ZN5boost7numeric5ublas17matrix_expressionINS1_20matrix_matrix_binaryINS1_6matrixIdNS1_15basic_row_majorImlEENS1_15unbounded_arrayIdSaIdEEEEESA_NS1_18matrix_matrix_prodISA_SA_dEEEEED1Ev,_ZN5boost7numeric5ublas17matrix_expressionINS1_20matrix_matrix_binaryINS1_6matrixIdNS1_15basic_row_majorImlEENS1_15unbounded_arrayIdSaIdEEEEESA_NS1_18matrix_matrix_prodISA_SA_dEEEEED2Ev
	.section	.text._ZN5boost7numeric5ublas17matrix_expressionINS1_16matrix_referenceIKNS1_6matrixIdNS1_15basic_row_majorImlEENS1_15unbounded_arrayIdSaIdEEEEEEEED2Ev,"axG",@progbits,_ZN5boost7numeric5ublas17matrix_expressionINS1_16matrix_referenceIKNS1_6matrixIdNS1_15basic_row_majorImlEENS1_15unbounded_arrayIdSaIdEEEEEEEED5Ev,comdat
	.align 2
	.weak	_ZN5boost7numeric5ublas17matrix_expressionINS1_16matrix_referenceIKNS1_6matrixIdNS1_15basic_row_majorImlEENS1_15unbounded_arrayIdSaIdEEEEEEEED2Ev
	.type	_ZN5boost7numeric5ublas17matrix_expressionINS1_16matrix_referenceIKNS1_6matrixIdNS1_15basic_row_majorImlEENS1_15unbounded_arrayIdSaIdEEEEEEEED2Ev, @function
_ZN5boost7numeric5ublas17matrix_expressionINS1_16matrix_referenceIKNS1_6matrixIdNS1_15basic_row_majorImlEENS1_15unbounded_arrayIdSaIdEEEEEEEED2Ev:
.LFB7943:
	.cfi_startproc
	endbr64
	pushq	%rbp
	.cfi_def_cfa_offset 16
	.cfi_offset 6, -16
	movq	%rsp, %rbp
	.cfi_def_cfa_register 6
	subq	$16, %rsp
	movq	%rdi, -8(%rbp)
	movq	-8(%rbp), %rax
	movq	%rax, %rdi
	call	_ZN5boost7numeric5ublas16ublas_expressionINS1_16matrix_referenceIKNS1_6matrixIdNS1_15basic_row_majorImlEENS1_15unbounded_arrayIdSaIdEEEEEEEED2Ev
	nop
	leave
	.cfi_def_cfa 7, 8
	ret
	.cfi_endproc
.LFE7943:
	.size	_ZN5boost7numeric5ublas17matrix_expressionINS1_16matrix_referenceIKNS1_6matrixIdNS1_15basic_row_majorImlEENS1_15unbounded_arrayIdSaIdEEEEEEEED2Ev, .-_ZN5boost7numeric5ublas17matrix_expressionINS1_16matrix_referenceIKNS1_6matrixIdNS1_15basic_row_majorImlEENS1_15unbounded_arrayIdSaIdEEEEEEEED2Ev
	.weak	_ZN5boost7numeric5ublas17matrix_expressionINS1_16matrix_referenceIKNS1_6matrixIdNS1_15basic_row_majorImlEENS1_15unbounded_arrayIdSaIdEEEEEEEED1Ev
	.set	_ZN5boost7numeric5ublas17matrix_expressionINS1_16matrix_referenceIKNS1_6matrixIdNS1_15basic_row_majorImlEENS1_15unbounded_arrayIdSaIdEEEEEEEED1Ev,_ZN5boost7numeric5ublas17matrix_expressionINS1_16matrix_referenceIKNS1_6matrixIdNS1_15basic_row_majorImlEENS1_15unbounded_arrayIdSaIdEEEEEEEED2Ev
	.section	.text._ZN5boost7numeric5ublas16matrix_referenceIKNS1_6matrixIdNS1_15basic_row_majorImlEENS1_15unbounded_arrayIdSaIdEEEEEED2Ev,"axG",@progbits,_ZN5boost7numeric5ublas16matrix_referenceIKNS1_6matrixIdNS1_15basic_row_majorImlEENS1_15unbounded_arrayIdSaIdEEEEEED5Ev,comdat
	.align 2
	.weak	_ZN5boost7numeric5ublas16matrix_referenceIKNS1_6matrixIdNS1_15basic_row_majorImlEENS1_15unbounded_arrayIdSaIdEEEEEED2Ev
	.type	_ZN5boost7numeric5ublas16matrix_referenceIKNS1_6matrixIdNS1_15basic_row_majorImlEENS1_15unbounded_arrayIdSaIdEEEEEED2Ev, @function
_ZN5boost7numeric5ublas16matrix_referenceIKNS1_6matrixIdNS1_15basic_row_majorImlEENS1_15unbounded_arrayIdSaIdEEEEEED2Ev:
.LFB7945:
	.cfi_startproc
	endbr64
	pushq	%rbp
	.cfi_def_cfa_offset 16
	.cfi_offset 6, -16
	movq	%rsp, %rbp
	.cfi_def_cfa_register 6
	subq	$16, %rsp
	movq	%rdi, -8(%rbp)
	movq	-8(%rbp), %rax
	movq	%rax, %rdi
	call	_ZN5boost7numeric5ublas17matrix_expressionINS1_16matrix_referenceIKNS1_6matrixIdNS1_15basic_row_majorImlEENS1_15unbounded_arrayIdSaIdEEEEEEEED2Ev
	nop
	leave
	.cfi_def_cfa 7, 8
	ret
	.cfi_endproc
.LFE7945:
	.size	_ZN5boost7numeric5ublas16matrix_referenceIKNS1_6matrixIdNS1_15basic_row_majorImlEENS1_15unbounded_arrayIdSaIdEEEEEED2Ev, .-_ZN5boost7numeric5ublas16matrix_referenceIKNS1_6matrixIdNS1_15basic_row_majorImlEENS1_15unbounded_arrayIdSaIdEEEEEED2Ev
	.weak	_ZN5boost7numeric5ublas16matrix_referenceIKNS1_6matrixIdNS1_15basic_row_majorImlEENS1_15unbounded_arrayIdSaIdEEEEEED1Ev
	.set	_ZN5boost7numeric5ublas16matrix_referenceIKNS1_6matrixIdNS1_15basic_row_majorImlEENS1_15unbounded_arrayIdSaIdEEEEEED1Ev,_ZN5boost7numeric5ublas16matrix_referenceIKNS1_6matrixIdNS1_15basic_row_majorImlEENS1_15unbounded_arrayIdSaIdEEEEEED2Ev
	.section	.text._ZN5boost7numeric5ublas20matrix_matrix_binaryINS1_6matrixIdNS1_15basic_row_majorImlEENS1_15unbounded_arrayIdSaIdEEEEES9_NS1_18matrix_matrix_prodIS9_S9_dEEED2Ev,"axG",@progbits,_ZN5boost7numeric5ublas20matrix_matrix_binaryINS1_6matrixIdNS1_15basic_row_majorImlEENS1_15unbounded_arrayIdSaIdEEEEES9_NS1_18matrix_matrix_prodIS9_S9_dEEED5Ev,comdat
	.align 2
	.weak	_ZN5boost7numeric5ublas20matrix_matrix_binaryINS1_6matrixIdNS1_15basic_row_majorImlEENS1_15unbounded_arrayIdSaIdEEEEES9_NS1_18matrix_matrix_prodIS9_S9_dEEED2Ev
	.type	_ZN5boost7numeric5ublas20matrix_matrix_binaryINS1_6matrixIdNS1_15basic_row_majorImlEENS1_15unbounded_arrayIdSaIdEEEEES9_NS1_18matrix_matrix_prodIS9_S9_dEEED2Ev, @function
_ZN5boost7numeric5ublas20matrix_matrix_binaryINS1_6matrixIdNS1_15basic_row_majorImlEENS1_15unbounded_arrayIdSaIdEEEEES9_NS1_18matrix_matrix_prodIS9_S9_dEEED2Ev:
.LFB7947:
	.cfi_startproc
	endbr64
	pushq	%rbp
	.cfi_def_cfa_offset 16
	.cfi_offset 6, -16
	movq	%rsp, %rbp
	.cfi_def_cfa_register 6
	subq	$16, %rsp
	movq	%rdi, -8(%rbp)
	movq	-8(%rbp), %rax
	addq	$8, %rax
	movq	%rax, %rdi
	call	_ZN5boost7numeric5ublas16matrix_referenceIKNS1_6matrixIdNS1_15basic_row_majorImlEENS1_15unbounded_arrayIdSaIdEEEEEED1Ev
	movq	-8(%rbp), %rax
	movq	%rax, %rdi
	call	_ZN5boost7numeric5ublas16matrix_referenceIKNS1_6matrixIdNS1_15basic_row_majorImlEENS1_15unbounded_arrayIdSaIdEEEEEED1Ev
	movq	-8(%rbp), %rax
	movq	%rax, %rdi
	call	_ZN5boost7numeric5ublas17matrix_expressionINS1_20matrix_matrix_binaryINS1_6matrixIdNS1_15basic_row_majorImlEENS1_15unbounded_arrayIdSaIdEEEEESA_NS1_18matrix_matrix_prodISA_SA_dEEEEED2Ev
	nop
	leave
	.cfi_def_cfa 7, 8
	ret
	.cfi_endproc
.LFE7947:
	.size	_ZN5boost7numeric5ublas20matrix_matrix_binaryINS1_6matrixIdNS1_15basic_row_majorImlEENS1_15unbounded_arrayIdSaIdEEEEES9_NS1_18matrix_matrix_prodIS9_S9_dEEED2Ev, .-_ZN5boost7numeric5ublas20matrix_matrix_binaryINS1_6matrixIdNS1_15basic_row_majorImlEENS1_15unbounded_arrayIdSaIdEEEEES9_NS1_18matrix_matrix_prodIS9_S9_dEEED2Ev
	.weak	_ZN5boost7numeric5ublas20matrix_matrix_binaryINS1_6matrixIdNS1_15basic_row_majorImlEENS1_15unbounded_arrayIdSaIdEEEEES9_NS1_18matrix_matrix_prodIS9_S9_dEEED1Ev
	.set	_ZN5boost7numeric5ublas20matrix_matrix_binaryINS1_6matrixIdNS1_15basic_row_majorImlEENS1_15unbounded_arrayIdSaIdEEEEES9_NS1_18matrix_matrix_prodIS9_S9_dEEED1Ev,_ZN5boost7numeric5ublas20matrix_matrix_binaryINS1_6matrixIdNS1_15basic_row_majorImlEENS1_15unbounded_arrayIdSaIdEEEEES9_NS1_18matrix_matrix_prodIS9_S9_dEEED2Ev
	.section	.text._ZNSt6chrono8durationIdSt5ratioILl1ELl1EEEC1IlS1_ILl1ELl1000000000EEvEERKNS0_IT_T0_EE,"axG",@progbits,_ZNSt6chrono8durationIdSt5ratioILl1ELl1EEEC1IlS1_ILl1ELl1000000000EEvEERKNS0_IT_T0_EE,comdat
	.align 2
	.weak	_ZNSt6chrono8durationIdSt5ratioILl1ELl1EEEC1IlS1_ILl1ELl1000000000EEvEERKNS0_IT_T0_EE
	.type	_ZNSt6chrono8durationIdSt5ratioILl1ELl1EEEC1IlS1_ILl1ELl1000000000EEvEERKNS0_IT_T0_EE, @function
_ZNSt6chrono8durationIdSt5ratioILl1ELl1EEEC1IlS1_ILl1ELl1000000000EEvEERKNS0_IT_T0_EE:
.LFB7952:
	.cfi_startproc
	endbr64
	pushq	%rbp
	.cfi_def_cfa_offset 16
	.cfi_offset 6, -16
	movq	%rsp, %rbp
	.cfi_def_cfa_register 6
	subq	$32, %rsp
	movq	%rdi, -24(%rbp)
	movq	%rsi, -32(%rbp)
	movq	%fs:40, %rax
	movq	%rax, -8(%rbp)
	xorl	%eax, %eax
	movq	-32(%rbp), %rax
	movq	%rax, %rdi
	call	_ZNSt6chrono13duration_castINS_8durationIdSt5ratioILl1ELl1EEEElS2_ILl1ELl1000000000EEEENSt9enable_ifIXsrNS_13__is_durationIT_EE5valueES8_E4typeERKNS1_IT0_T1_EE
	movq	%xmm0, %rax
	movq	%rax, %xmm0
	movsd	%xmm0, -16(%rbp)
	leaq	-16(%rbp), %rax
	movq	%rax, %rdi
	call	_ZNKSt6chrono8durationIdSt5ratioILl1ELl1EEE5countEv
	movq	%xmm0, %rax
	movq	-24(%rbp), %rdx
	movq	%rax, (%rdx)
	nop
	movq	-8(%rbp), %rax
	subq	%fs:40, %rax
	je	.L48
	call	__stack_chk_fail@PLT
.L48:
	leave
	.cfi_def_cfa 7, 8
	ret
	.cfi_endproc
.LFE7952:
	.size	_ZNSt6chrono8durationIdSt5ratioILl1ELl1EEEC1IlS1_ILl1ELl1000000000EEvEERKNS0_IT_T0_EE, .-_ZNSt6chrono8durationIdSt5ratioILl1ELl1EEEC1IlS1_ILl1ELl1000000000EEvEERKNS0_IT_T0_EE
	.section	.text._ZNSt6chronomiINS_3_V212system_clockENS_8durationIlSt5ratioILl1ELl1000000000EEEES6_EENSt11common_typeIJT0_T1_EE4typeERKNS_10time_pointIT_S8_EERKNSC_ISD_S9_EE,"axG",@progbits,_ZNSt6chronomiINS_3_V212system_clockENS_8durationIlSt5ratioILl1ELl1000000000EEEES6_EENSt11common_typeIJT0_T1_EE4typeERKNS_10time_pointIT_S8_EERKNSC_ISD_S9_EE,comdat
	.weak	_ZNSt6chronomiINS_3_V212system_clockENS_8durationIlSt5ratioILl1ELl1000000000EEEES6_EENSt11common_typeIJT0_T1_EE4typeERKNS_10time_pointIT_S8_EERKNSC_ISD_S9_EE
	.type	_ZNSt6chronomiINS_3_V212system_clockENS_8durationIlSt5ratioILl1ELl1000000000EEEES6_EENSt11common_typeIJT0_T1_EE4typeERKNS_10time_pointIT_S8_EERKNSC_ISD_S9_EE, @function
_ZNSt6chronomiINS_3_V212system_clockENS_8durationIlSt5ratioILl1ELl1000000000EEEES6_EENSt11common_typeIJT0_T1_EE4typeERKNS_10time_pointIT_S8_EERKNSC_ISD_S9_EE:
.LFB7953:
	.cfi_startproc
	endbr64
	pushq	%rbp
	.cfi_def_cfa_offset 16
	.cfi_offset 6, -16
	movq	%rsp, %rbp
	.cfi_def_cfa_register 6
	subq	$48, %rsp
	movq	%rdi, -40(%rbp)
	movq	%rsi, -48(%rbp)
	movq	%fs:40, %rax
	movq	%rax, -8(%rbp)
	xorl	%eax, %eax
	movq	-48(%rbp), %rax
	movq	%rax, %rdi
	call	_ZNKSt6chrono10time_pointINS_3_V212system_clockENS_8durationIlSt5ratioILl1ELl1000000000EEEEE16time_since_epochEv
	movq	%rax, -16(%rbp)
	movq	-40(%rbp), %rax
	movq	%rax, %rdi
	call	_ZNKSt6chrono10time_pointINS_3_V212system_clockENS_8durationIlSt5ratioILl1ELl1000000000EEEEE16time_since_epochEv
	movq	%rax, -24(%rbp)
	leaq	-16(%rbp), %rdx
	leaq	-24(%rbp), %rax
	movq	%rdx, %rsi
	movq	%rax, %rdi
	call	_ZNSt6chronomiIlSt5ratioILl1ELl1000000000EElS2_EENSt11common_typeIJNS_8durationIT_T0_EENS4_IT1_T2_EEEE4typeERKS7_RKSA_
	movq	-8(%rbp), %rdx
	subq	%fs:40, %rdx
	je	.L51
	call	__stack_chk_fail@PLT
.L51:
	leave
	.cfi_def_cfa 7, 8
	ret
	.cfi_endproc
.LFE7953:
	.size	_ZNSt6chronomiINS_3_V212system_clockENS_8durationIlSt5ratioILl1ELl1000000000EEEES6_EENSt11common_typeIJT0_T1_EE4typeERKNS_10time_pointIT_S8_EERKNSC_ISD_S9_EE, .-_ZNSt6chronomiINS_3_V212system_clockENS_8durationIlSt5ratioILl1ELl1000000000EEEES6_EENSt11common_typeIJT0_T1_EE4typeERKNS_10time_pointIT_S8_EERKNSC_ISD_S9_EE
	.section	.text._ZNSt6chronomiIlSt5ratioILl1ELl1000000000EElS2_EENSt11common_typeIJNS_8durationIT_T0_EENS4_IT1_T2_EEEE4typeERKS7_RKSA_,"axG",@progbits,_ZNSt6chronomiIlSt5ratioILl1ELl1000000000EElS2_EENSt11common_typeIJNS_8durationIT_T0_EENS4_IT1_T2_EEEE4typeERKS7_RKSA_,comdat
	.weak	_ZNSt6chronomiIlSt5ratioILl1ELl1000000000EElS2_EENSt11common_typeIJNS_8durationIT_T0_EENS4_IT1_T2_EEEE4typeERKS7_RKSA_
	.type	_ZNSt6chronomiIlSt5ratioILl1ELl1000000000EElS2_EENSt11common_typeIJNS_8durationIT_T0_EENS4_IT1_T2_EEEE4typeERKS7_RKSA_, @function
_ZNSt6chronomiIlSt5ratioILl1ELl1000000000EElS2_EENSt11common_typeIJNS_8durationIT_T0_EENS4_IT1_T2_EEEE4typeERKS7_RKSA_:
.LFB7954:
	.cfi_startproc
	endbr64
	pushq	%rbp
	.cfi_def_cfa_offset 16
	.cfi_offset 6, -16
	movq	%rsp, %rbp
	.cfi_def_cfa_register 6
	pushq	%rbx
	subq	$72, %rsp
	.cfi_offset 3, -24
	movq	%rdi, -72(%rbp)
	movq	%rsi, -80(%rbp)
	movq	%fs:40, %rax
	movq	%rax, -24(%rbp)
	xorl	%eax, %eax
	movq	-72(%rbp), %rax
	movq	(%rax), %rax
	movq	%rax, -56(%rbp)
	leaq	-56(%rbp), %rax
	movq	%rax, %rdi
	call	_ZNKSt6chrono8durationIlSt5ratioILl1ELl1000000000EEE5countEv
	movq	%rax, %rbx
	movq	-80(%rbp), %rax
	movq	(%rax), %rax
	movq	%rax, -48(%rbp)
	leaq	-48(%rbp), %rax
	movq	%rax, %rdi
	call	_ZNKSt6chrono8durationIlSt5ratioILl1ELl1000000000EEE5countEv
	movq	%rax, %rdx
	movq	%rbx, %rax
	subq	%rdx, %rax
	movq	%rax, -40(%rbp)
	leaq	-40(%rbp), %rdx
	leaq	-32(%rbp), %rax
	movq	%rdx, %rsi
	movq	%rax, %rdi
	call	_ZNSt6chrono8durationIlSt5ratioILl1ELl1000000000EEEC1IlvEERKT_
	movq	-32(%rbp), %rax
	movq	-24(%rbp), %rdx
	subq	%fs:40, %rdx
	je	.L54
	call	__stack_chk_fail@PLT
.L54:
	movq	-8(%rbp), %rbx
	leave
	.cfi_def_cfa 7, 8
	ret
	.cfi_endproc
.LFE7954:
	.size	_ZNSt6chronomiIlSt5ratioILl1ELl1000000000EElS2_EENSt11common_typeIJNS_8durationIT_T0_EENS4_IT1_T2_EEEE4typeERKS7_RKSA_, .-_ZNSt6chronomiIlSt5ratioILl1ELl1000000000EElS2_EENSt11common_typeIJNS_8durationIT_T0_EENS4_IT1_T2_EEEE4typeERKS7_RKSA_
	.section	.text._ZNKSt6chrono10time_pointINS_3_V212system_clockENS_8durationIlSt5ratioILl1ELl1000000000EEEEE16time_since_epochEv,"axG",@progbits,_ZNKSt6chrono10time_pointINS_3_V212system_clockENS_8durationIlSt5ratioILl1ELl1000000000EEEEE16time_since_epochEv,comdat
	.align 2
	.weak	_ZNKSt6chrono10time_pointINS_3_V212system_clockENS_8durationIlSt5ratioILl1ELl1000000000EEEEE16time_since_epochEv
	.type	_ZNKSt6chrono10time_pointINS_3_V212system_clockENS_8durationIlSt5ratioILl1ELl1000000000EEEEE16time_since_epochEv, @function
_ZNKSt6chrono10time_pointINS_3_V212system_clockENS_8durationIlSt5ratioILl1ELl1000000000EEEEE16time_since_epochEv:
.LFB7955:
	.cfi_startproc
	endbr64
	pushq	%rbp
	.cfi_def_cfa_offset 16
	.cfi_offset 6, -16
	movq	%rsp, %rbp
	.cfi_def_cfa_register 6
	movq	%rdi, -8(%rbp)
	movq	-8(%rbp), %rax
	movq	(%rax), %rax
	popq	%rbp
	.cfi_def_cfa 7, 8
	ret
	.cfi_endproc
.LFE7955:
	.size	_ZNKSt6chrono10time_pointINS_3_V212system_clockENS_8durationIlSt5ratioILl1ELl1000000000EEEEE16time_since_epochEv, .-_ZNKSt6chrono10time_pointINS_3_V212system_clockENS_8durationIlSt5ratioILl1ELl1000000000EEEEE16time_since_epochEv
	.section	.rodata
.LC10:
	.string	"Multiplication of "
.LC11:
	.string	"and "
.LC12:
	.string	"is"
.LC13:
	.string	"finished computation at "
.LC14:
	.string	"elapsed time: "
.LC15:
	.string	"s"
	.text
	.globl	main
	.type	main, @function
main:
.LFB7927:
	.cfi_startproc
	.cfi_personality 0x9b,DW.ref.__gxx_personality_v0
	.cfi_lsda 0x1b,.LLSDA7927
	endbr64
	pushq	%rbp
	.cfi_def_cfa_offset 16
	.cfi_offset 6, -16
	movq	%rsp, %rbp
	.cfi_def_cfa_register 6
	pushq	%rbx
	subq	$200, %rsp
	.cfi_offset 3, -24
	movq	%fs:40, %rax
	movq	%rax, -24(%rbp)
	xorl	%eax, %eax
	call	_ZNSt6chrono3_V212system_clock3nowEv@PLT
	movq	%rax, -200(%rbp)
	leaq	-160(%rbp), %rax
	movl	$2, %edx
	movl	$2, %esi
	movq	%rax, %rdi
.LEHB0:
	call	_ZN5boost7numeric5ublas6matrixIdNS1_15basic_row_majorImlEENS1_15unbounded_arrayIdSaIdEEEEC1Emm
.LEHE0:
	leaq	-160(%rbp), %rax
	movl	$0, %edx
	movl	$0, %esi
	movq	%rax, %rdi
.LEHB1:
	call	_ZN5boost7numeric5ublas6matrixIdNS1_15basic_row_majorImlEENS1_15unbounded_arrayIdSaIdEEEEclEmm
	movsd	.LC4(%rip), %xmm0
	movsd	%xmm0, (%rax)
	leaq	-160(%rbp), %rax
	movl	$1, %edx
	movl	$0, %esi
	movq	%rax, %rdi
	call	_ZN5boost7numeric5ublas6matrixIdNS1_15basic_row_majorImlEENS1_15unbounded_arrayIdSaIdEEEEclEmm
	movsd	.LC5(%rip), %xmm0
	movsd	%xmm0, (%rax)
	leaq	-160(%rbp), %rax
	movl	$0, %edx
	movl	$1, %esi
	movq	%rax, %rdi
	call	_ZN5boost7numeric5ublas6matrixIdNS1_15basic_row_majorImlEENS1_15unbounded_arrayIdSaIdEEEEclEmm
	movsd	.LC6(%rip), %xmm0
	movsd	%xmm0, (%rax)
	leaq	-160(%rbp), %rax
	movl	$1, %edx
	movl	$1, %esi
	movq	%rax, %rdi
	call	_ZN5boost7numeric5ublas6matrixIdNS1_15basic_row_majorImlEENS1_15unbounded_arrayIdSaIdEEEEclEmm
	movsd	.LC7(%rip), %xmm0
	movsd	%xmm0, (%rax)
	leaq	-112(%rbp), %rax
	movl	$2, %edx
	movl	$2, %esi
	movq	%rax, %rdi
	call	_ZN5boost7numeric5ublas6matrixIdNS1_15basic_row_majorImlEENS1_15unbounded_arrayIdSaIdEEEEC1Emm
.LEHE1:
	leaq	-112(%rbp), %rax
	movl	$0, %edx
	movl	$0, %esi
	movq	%rax, %rdi
.LEHB2:
	call	_ZN5boost7numeric5ublas6matrixIdNS1_15basic_row_majorImlEENS1_15unbounded_arrayIdSaIdEEEEclEmm
	movsd	.LC8(%rip), %xmm0
	movsd	%xmm0, (%rax)
	leaq	-112(%rbp), %rax
	movl	$1, %edx
	movl	$0, %esi
	movq	%rax, %rdi
	call	_ZN5boost7numeric5ublas6matrixIdNS1_15basic_row_majorImlEENS1_15unbounded_arrayIdSaIdEEEEclEmm
	pxor	%xmm0, %xmm0
	movsd	%xmm0, (%rax)
	leaq	-112(%rbp), %rax
	movl	$0, %edx
	movl	$1, %esi
	movq	%rax, %rdi
	call	_ZN5boost7numeric5ublas6matrixIdNS1_15basic_row_majorImlEENS1_15unbounded_arrayIdSaIdEEEEclEmm
	pxor	%xmm0, %xmm0
	movsd	%xmm0, (%rax)
	leaq	-112(%rbp), %rax
	movl	$1, %edx
	movl	$1, %esi
	movq	%rax, %rdi
	call	_ZN5boost7numeric5ublas6matrixIdNS1_15basic_row_majorImlEENS1_15unbounded_arrayIdSaIdEEEEclEmm
	movsd	.LC8(%rip), %xmm0
	movsd	%xmm0, (%rax)
	leaq	-176(%rbp), %rax
	leaq	-112(%rbp), %rdx
	leaq	-160(%rbp), %rcx
	movq	%rcx, %rsi
	movq	%rax, %rdi
	call	_ZN5boost7numeric5ublas4prodINS1_6matrixIdNS1_15basic_row_majorImlEENS1_15unbounded_arrayIdSaIdEEEEES9_EENS1_27matrix_matrix_binary_traitsINT_10value_typeESB_NT0_10value_typeESD_E11result_typeERKNS1_17matrix_expressionISB_EERKNSH_ISD_EE
.LEHE2:
	leaq	-176(%rbp), %rdx
	leaq	-64(%rbp), %rax
	movq	%rdx, %rsi
	movq	%rax, %rdi
.LEHB3:
	call	_ZN5boost7numeric5ublas6matrixIdNS1_15basic_row_majorImlEENS1_15unbounded_arrayIdSaIdEEEEC1INS1_20matrix_matrix_binaryIS8_S8_NS1_18matrix_matrix_prodIS8_S8_dEEEEEERKNS1_17matrix_expressionIT_EE
.LEHE3:
	leaq	-176(%rbp), %rax
	movq	%rax, %rdi
	call	_ZN5boost7numeric5ublas20matrix_matrix_binaryINS1_6matrixIdNS1_15basic_row_majorImlEENS1_15unbounded_arrayIdSaIdEEEEES9_NS1_18matrix_matrix_prodIS9_S9_dEEED1Ev
	leaq	.LC10(%rip), %rax
	movq	%rax, %rsi
	leaq	_ZSt4cout(%rip), %rax
	movq	%rax, %rdi
.LEHB4:
	call	_ZStlsISt11char_traitsIcEERSt13basic_ostreamIcT_ES5_PKc@PLT
	movq	_ZSt4endlIcSt11char_traitsIcEERSt13basic_ostreamIT_T0_ES6_@GOTPCREL(%rip), %rdx
	movq	%rdx, %rsi
	movq	%rax, %rdi
	call	_ZNSolsEPFRSoS_E@PLT
	movq	%rax, %rdx
	leaq	-160(%rbp), %rax
	movq	%rax, %rsi
	movq	%rdx, %rdi
	call	_ZlsRSoRKN5boost7numeric5ublas6matrixIdNS2_15basic_row_majorImlEENS2_15unbounded_arrayIdSaIdEEEEE
	movq	_ZSt4endlIcSt11char_traitsIcEERSt13basic_ostreamIT_T0_ES6_@GOTPCREL(%rip), %rdx
	movq	%rdx, %rsi
	movq	%rax, %rdi
	call	_ZNSolsEPFRSoS_E@PLT
	leaq	.LC11(%rip), %rax
	movq	%rax, %rsi
	leaq	_ZSt4cout(%rip), %rax
	movq	%rax, %rdi
	call	_ZStlsISt11char_traitsIcEERSt13basic_ostreamIcT_ES5_PKc@PLT
	movq	_ZSt4endlIcSt11char_traitsIcEERSt13basic_ostreamIT_T0_ES6_@GOTPCREL(%rip), %rdx
	movq	%rdx, %rsi
	movq	%rax, %rdi
	call	_ZNSolsEPFRSoS_E@PLT
	movq	%rax, %rdx
	leaq	-112(%rbp), %rax
	movq	%rax, %rsi
	movq	%rdx, %rdi
	call	_ZlsRSoRKN5boost7numeric5ublas6matrixIdNS2_15basic_row_majorImlEENS2_15unbounded_arrayIdSaIdEEEEE
	movq	_ZSt4endlIcSt11char_traitsIcEERSt13basic_ostreamIT_T0_ES6_@GOTPCREL(%rip), %rdx
	movq	%rdx, %rsi
	movq	%rax, %rdi
	call	_ZNSolsEPFRSoS_E@PLT
	leaq	.LC12(%rip), %rax
	movq	%rax, %rsi
	leaq	_ZSt4cout(%rip), %rax
	movq	%rax, %rdi
	call	_ZStlsISt11char_traitsIcEERSt13basic_ostreamIcT_ES5_PKc@PLT
	movq	_ZSt4endlIcSt11char_traitsIcEERSt13basic_ostreamIT_T0_ES6_@GOTPCREL(%rip), %rdx
	movq	%rdx, %rsi
	movq	%rax, %rdi
	call	_ZNSolsEPFRSoS_E@PLT
	leaq	-64(%rbp), %rax
	movq	%rax, %rsi
	leaq	_ZSt4cout(%rip), %rax
	movq	%rax, %rdi
	call	_ZlsRSoRKN5boost7numeric5ublas6matrixIdNS2_15basic_row_majorImlEENS2_15unbounded_arrayIdSaIdEEEEE
	movq	_ZSt4endlIcSt11char_traitsIcEERSt13basic_ostreamIT_T0_ES6_@GOTPCREL(%rip), %rdx
	movq	%rdx, %rsi
	movq	%rax, %rdi
	call	_ZNSolsEPFRSoS_E@PLT
	call	_ZNSt6chrono3_V212system_clock3nowEv@PLT
	movq	%rax, -192(%rbp)
	leaq	-200(%rbp), %rdx
	leaq	-192(%rbp), %rax
	movq	%rdx, %rsi
	movq	%rax, %rdi
	call	_ZNSt6chronomiINS_3_V212system_clockENS_8durationIlSt5ratioILl1ELl1000000000EEEES6_EENSt11common_typeIJT0_T1_EE4typeERKNS_10time_pointIT_S8_EERKNSC_ISD_S9_EE
	movq	%rax, -176(%rbp)
	leaq	-176(%rbp), %rdx
	leaq	-184(%rbp), %rax
	movq	%rdx, %rsi
	movq	%rax, %rdi
	call	_ZNSt6chrono8durationIdSt5ratioILl1ELl1EEEC1IlS1_ILl1ELl1000000000EEvEERKNS0_IT_T0_EE
	leaq	-192(%rbp), %rax
	movq	%rax, %rdi
	call	_ZNSt6chrono3_V212system_clock9to_time_tERKNS_10time_pointIS1_NS_8durationIlSt5ratioILl1ELl1000000000EEEEEE
	movq	%rax, -176(%rbp)
	leaq	.LC13(%rip), %rax
	movq	%rax, %rsi
	leaq	_ZSt4cout(%rip), %rax
	movq	%rax, %rdi
	call	_ZStlsISt11char_traitsIcEERSt13basic_ostreamIcT_ES5_PKc@PLT
	movq	%rax, %rbx
	leaq	-176(%rbp), %rax
	movq	%rax, %rdi
	call	ctime@PLT
	movq	%rax, %rsi
	movq	%rbx, %rdi
	call	_ZStlsISt11char_traitsIcEERSt13basic_ostreamIcT_ES5_PKc@PLT
	movq	%rax, %rdx
	leaq	.LC14(%rip), %rax
	movq	%rax, %rsi
	movq	%rdx, %rdi
	call	_ZStlsISt11char_traitsIcEERSt13basic_ostreamIcT_ES5_PKc@PLT
	movq	%rax, %rbx
	leaq	-184(%rbp), %rax
	movq	%rax, %rdi
	call	_ZNKSt6chrono8durationIdSt5ratioILl1ELl1EEE5countEv
	movq	%xmm0, %rax
	movq	%rax, %xmm0
	movq	%rbx, %rdi
	call	_ZNSolsEd@PLT
	movq	%rax, %rdx
	leaq	.LC15(%rip), %rax
	movq	%rax, %rsi
	movq	%rdx, %rdi
	call	_ZStlsISt11char_traitsIcEERSt13basic_ostreamIcT_ES5_PKc@PLT
	movq	_ZSt4endlIcSt11char_traitsIcEERSt13basic_ostreamIT_T0_ES6_@GOTPCREL(%rip), %rdx
	movq	%rdx, %rsi
	movq	%rax, %rdi
	call	_ZNSolsEPFRSoS_E@PLT
.LEHE4:
	movl	$0, %ebx
	leaq	-64(%rbp), %rax
	movq	%rax, %rdi
	call	_ZN5boost7numeric5ublas6matrixIdNS1_15basic_row_majorImlEENS1_15unbounded_arrayIdSaIdEEEED1Ev
	leaq	-112(%rbp), %rax
	movq	%rax, %rdi
	call	_ZN5boost7numeric5ublas6matrixIdNS1_15basic_row_majorImlEENS1_15unbounded_arrayIdSaIdEEEED1Ev
	leaq	-160(%rbp), %rax
	movq	%rax, %rdi
	call	_ZN5boost7numeric5ublas6matrixIdNS1_15basic_row_majorImlEENS1_15unbounded_arrayIdSaIdEEEED1Ev
	movl	%ebx, %eax
	movq	-24(%rbp), %rdx
	subq	%fs:40, %rdx
	je	.L63
	jmp	.L68
.L66:
	endbr64
	movq	%rax, %rbx
	leaq	-176(%rbp), %rax
	movq	%rax, %rdi
	call	_ZN5boost7numeric5ublas20matrix_matrix_binaryINS1_6matrixIdNS1_15basic_row_majorImlEENS1_15unbounded_arrayIdSaIdEEEEES9_NS1_18matrix_matrix_prodIS9_S9_dEEED1Ev
	jmp	.L60
.L67:
	endbr64
	movq	%rax, %rbx
	leaq	-64(%rbp), %rax
	movq	%rax, %rdi
	call	_ZN5boost7numeric5ublas6matrixIdNS1_15basic_row_majorImlEENS1_15unbounded_arrayIdSaIdEEEED1Ev
	jmp	.L60
.L65:
	endbr64
	movq	%rax, %rbx
.L60:
	leaq	-112(%rbp), %rax
	movq	%rax, %rdi
	call	_ZN5boost7numeric5ublas6matrixIdNS1_15basic_row_majorImlEENS1_15unbounded_arrayIdSaIdEEEED1Ev
	jmp	.L62
.L64:
	endbr64
	movq	%rax, %rbx
.L62:
	leaq	-160(%rbp), %rax
	movq	%rax, %rdi
	call	_ZN5boost7numeric5ublas6matrixIdNS1_15basic_row_majorImlEENS1_15unbounded_arrayIdSaIdEEEED1Ev
	movq	%rbx, %rax
	movq	%rax, %rdi
.LEHB5:
	call	_Unwind_Resume@PLT
.LEHE5:
.L68:
	call	__stack_chk_fail@PLT
.L63:
	movq	-8(%rbp), %rbx
	leave
	.cfi_def_cfa 7, 8
	ret
	.cfi_endproc
.LFE7927:
	.section	.gcc_except_table,"a",@progbits
.LLSDA7927:
	.byte	0xff
	.byte	0xff
	.byte	0x1
	.uleb128 .LLSDACSE7927-.LLSDACSB7927
.LLSDACSB7927:
	.uleb128 .LEHB0-.LFB7927
	.uleb128 .LEHE0-.LEHB0
	.uleb128 0
	.uleb128 0
	.uleb128 .LEHB1-.LFB7927
	.uleb128 .LEHE1-.LEHB1
	.uleb128 .L64-.LFB7927
	.uleb128 0
	.uleb128 .LEHB2-.LFB7927
	.uleb128 .LEHE2-.LEHB2
	.uleb128 .L65-.LFB7927
	.uleb128 0
	.uleb128 .LEHB3-.LFB7927
	.uleb128 .LEHE3-.LEHB3
	.uleb128 .L66-.LFB7927
	.uleb128 0
	.uleb128 .LEHB4-.LFB7927
	.uleb128 .LEHE4-.LEHB4
	.uleb128 .L67-.LFB7927
	.uleb128 0
	.uleb128 .LEHB5-.LFB7927
	.uleb128 .LEHE5-.LEHB5
	.uleb128 0
	.uleb128 0
.LLSDACSE7927:
	.text
	.size	main, .-main
	.section	.text._ZNSt6chrono13duration_castINS_8durationIlSt5ratioILl1ELl1EEEElS2_ILl1ELl1000000000EEEENSt9enable_ifIXsrNS_13__is_durationIT_EE5valueES8_E4typeERKNS1_IT0_T1_EE,"axG",@progbits,_ZNSt6chrono13duration_castINS_8durationIlSt5ratioILl1ELl1EEEElS2_ILl1ELl1000000000EEEENSt9enable_ifIXsrNS_13__is_durationIT_EE5valueES8_E4typeERKNS1_IT0_T1_EE,comdat
	.weak	_ZNSt6chrono13duration_castINS_8durationIlSt5ratioILl1ELl1EEEElS2_ILl1ELl1000000000EEEENSt9enable_ifIXsrNS_13__is_durationIT_EE5valueES8_E4typeERKNS1_IT0_T1_EE
	.type	_ZNSt6chrono13duration_castINS_8durationIlSt5ratioILl1ELl1EEEElS2_ILl1ELl1000000000EEEENSt9enable_ifIXsrNS_13__is_durationIT_EE5valueES8_E4typeERKNS1_IT0_T1_EE, @function
_ZNSt6chrono13duration_castINS_8durationIlSt5ratioILl1ELl1EEEElS2_ILl1ELl1000000000EEEENSt9enable_ifIXsrNS_13__is_durationIT_EE5valueES8_E4typeERKNS1_IT0_T1_EE:
.LFB8291:
	.cfi_startproc
	endbr64
	pushq	%rbp
	.cfi_def_cfa_offset 16
	.cfi_offset 6, -16
	movq	%rsp, %rbp
	.cfi_def_cfa_register 6
	subq	$16, %rsp
	movq	%rdi, -8(%rbp)
	movq	-8(%rbp), %rax
	movq	%rax, %rdi
	call	_ZNSt6chrono20__duration_cast_implINS_8durationIlSt5ratioILl1ELl1EEEES2_ILl1ELl1000000000EElLb1ELb0EE6__castIlS5_EES4_RKNS1_IT_T0_EE
	leave
	.cfi_def_cfa 7, 8
	ret
	.cfi_endproc
.LFE8291:
	.size	_ZNSt6chrono13duration_castINS_8durationIlSt5ratioILl1ELl1EEEElS2_ILl1ELl1000000000EEEENSt9enable_ifIXsrNS_13__is_durationIT_EE5valueES8_E4typeERKNS1_IT0_T1_EE, .-_ZNSt6chrono13duration_castINS_8durationIlSt5ratioILl1ELl1EEEElS2_ILl1ELl1000000000EEEENSt9enable_ifIXsrNS_13__is_durationIT_EE5valueES8_E4typeERKNS1_IT0_T1_EE
	.section	.text._ZNKSt6chrono8durationIlSt5ratioILl1ELl1EEE5countEv,"axG",@progbits,_ZNKSt6chrono8durationIlSt5ratioILl1ELl1EEE5countEv,comdat
	.align 2
	.weak	_ZNKSt6chrono8durationIlSt5ratioILl1ELl1EEE5countEv
	.type	_ZNKSt6chrono8durationIlSt5ratioILl1ELl1EEE5countEv, @function
_ZNKSt6chrono8durationIlSt5ratioILl1ELl1EEE5countEv:
.LFB8292:
	.cfi_startproc
	endbr64
	pushq	%rbp
	.cfi_def_cfa_offset 16
	.cfi_offset 6, -16
	movq	%rsp, %rbp
	.cfi_def_cfa_register 6
	movq	%rdi, -8(%rbp)
	movq	-8(%rbp), %rax
	movq	(%rax), %rax
	popq	%rbp
	.cfi_def_cfa 7, 8
	ret
	.cfi_endproc
.LFE8292:
	.size	_ZNKSt6chrono8durationIlSt5ratioILl1ELl1EEE5countEv, .-_ZNKSt6chrono8durationIlSt5ratioILl1ELl1EEE5countEv
	.section	.text._ZNK5boost7numeric5ublas6matrixIdNS1_15basic_row_majorImlEENS1_15unbounded_arrayIdSaIdEEEE5size1Ev,"axG",@progbits,_ZNK5boost7numeric5ublas6matrixIdNS1_15basic_row_majorImlEENS1_15unbounded_arrayIdSaIdEEEE5size1Ev,comdat
	.align 2
	.weak	_ZNK5boost7numeric5ublas6matrixIdNS1_15basic_row_majorImlEENS1_15unbounded_arrayIdSaIdEEEE5size1Ev
	.type	_ZNK5boost7numeric5ublas6matrixIdNS1_15basic_row_majorImlEENS1_15unbounded_arrayIdSaIdEEEE5size1Ev, @function
_ZNK5boost7numeric5ublas6matrixIdNS1_15basic_row_majorImlEENS1_15unbounded_arrayIdSaIdEEEE5size1Ev:
.LFB8317:
	.cfi_startproc
	endbr64
	pushq	%rbp
	.cfi_def_cfa_offset 16
	.cfi_offset 6, -16
	movq	%rsp, %rbp
	.cfi_def_cfa_register 6
	movq	%rdi, -8(%rbp)
	movq	-8(%rbp), %rax
	movq	(%rax), %rax
	popq	%rbp
	.cfi_def_cfa 7, 8
	ret
	.cfi_endproc
.LFE8317:
	.size	_ZNK5boost7numeric5ublas6matrixIdNS1_15basic_row_majorImlEENS1_15unbounded_arrayIdSaIdEEEE5size1Ev, .-_ZNK5boost7numeric5ublas6matrixIdNS1_15basic_row_majorImlEENS1_15unbounded_arrayIdSaIdEEEE5size1Ev
	.section	.text._ZNK5boost7numeric5ublas6matrixIdNS1_15basic_row_majorImlEENS1_15unbounded_arrayIdSaIdEEEE5size2Ev,"axG",@progbits,_ZNK5boost7numeric5ublas6matrixIdNS1_15basic_row_majorImlEENS1_15unbounded_arrayIdSaIdEEEE5size2Ev,comdat
	.align 2
	.weak	_ZNK5boost7numeric5ublas6matrixIdNS1_15basic_row_majorImlEENS1_15unbounded_arrayIdSaIdEEEE5size2Ev
	.type	_ZNK5boost7numeric5ublas6matrixIdNS1_15basic_row_majorImlEENS1_15unbounded_arrayIdSaIdEEEE5size2Ev, @function
_ZNK5boost7numeric5ublas6matrixIdNS1_15basic_row_majorImlEENS1_15unbounded_arrayIdSaIdEEEE5size2Ev:
.LFB8319:
	.cfi_startproc
	endbr64
	pushq	%rbp
	.cfi_def_cfa_offset 16
	.cfi_offset 6, -16
	movq	%rsp, %rbp
	.cfi_def_cfa_register 6
	movq	%rdi, -8(%rbp)
	movq	-8(%rbp), %rax
	movq	8(%rax), %rax
	popq	%rbp
	.cfi_def_cfa 7, 8
	ret
	.cfi_endproc
.LFE8319:
	.size	_ZNK5boost7numeric5ublas6matrixIdNS1_15basic_row_majorImlEENS1_15unbounded_arrayIdSaIdEEEE5size2Ev, .-_ZNK5boost7numeric5ublas6matrixIdNS1_15basic_row_majorImlEENS1_15unbounded_arrayIdSaIdEEEE5size2Ev
	.section	.text._ZNK5boost7numeric5ublas6matrixIdNS1_15basic_row_majorImlEENS1_15unbounded_arrayIdSaIdEEEEclEmm,"axG",@progbits,_ZNK5boost7numeric5ublas6matrixIdNS1_15basic_row_majorImlEENS1_15unbounded_arrayIdSaIdEEEEclEmm,comdat
	.align 2
	.weak	_ZNK5boost7numeric5ublas6matrixIdNS1_15basic_row_majorImlEENS1_15unbounded_arrayIdSaIdEEEEclEmm
	.type	_ZNK5boost7numeric5ublas6matrixIdNS1_15basic_row_majorImlEENS1_15unbounded_arrayIdSaIdEEEEclEmm, @function
_ZNK5boost7numeric5ublas6matrixIdNS1_15basic_row_majorImlEENS1_15unbounded_arrayIdSaIdEEEEclEmm:
.LFB8321:
	.cfi_startproc
	endbr64
	pushq	%rbp
	.cfi_def_cfa_offset 16
	.cfi_offset 6, -16
	movq	%rsp, %rbp
	.cfi_def_cfa_register 6
	pushq	%rbx
	subq	$40, %rsp
	.cfi_offset 3, -24
	movq	%rdi, -24(%rbp)
	movq	%rsi, -32(%rbp)
	movq	%rdx, -40(%rbp)
	movq	-24(%rbp), %rax
	movq	%rax, %rdi
	call	_ZNK5boost7numeric5ublas6matrixIdNS1_15basic_row_majorImlEENS1_15unbounded_arrayIdSaIdEEEE4dataEv
	movq	%rax, %rbx
	movq	-24(%rbp), %rax
	movq	8(%rax), %rcx
	movq	-24(%rbp), %rax
	movq	(%rax), %rsi
	movq	-40(%rbp), %rdx
	movq	-32(%rbp), %rax
	movq	%rax, %rdi
	call	_ZN5boost7numeric5ublas15basic_row_majorImlE7elementEmmmm
	movq	%rax, %rsi
	movq	%rbx, %rdi
	call	_ZNK5boost7numeric5ublas15unbounded_arrayIdSaIdEEixEm
	movq	-8(%rbp), %rbx
	leave
	.cfi_def_cfa 7, 8
	ret
	.cfi_endproc
.LFE8321:
	.size	_ZNK5boost7numeric5ublas6matrixIdNS1_15basic_row_majorImlEENS1_15unbounded_arrayIdSaIdEEEEclEmm, .-_ZNK5boost7numeric5ublas6matrixIdNS1_15basic_row_majorImlEENS1_15unbounded_arrayIdSaIdEEEEclEmm
	.section	.text._ZN5boost7numeric5ublas17matrix_expressionINS1_6matrixIdNS1_15basic_row_majorImlEENS1_15unbounded_arrayIdSaIdEEEEEEC2Ev,"axG",@progbits,_ZN5boost7numeric5ublas17matrix_expressionINS1_6matrixIdNS1_15basic_row_majorImlEENS1_15unbounded_arrayIdSaIdEEEEEEC5Ev,comdat
	.align 2
	.weak	_ZN5boost7numeric5ublas17matrix_expressionINS1_6matrixIdNS1_15basic_row_majorImlEENS1_15unbounded_arrayIdSaIdEEEEEEC2Ev
	.type	_ZN5boost7numeric5ublas17matrix_expressionINS1_6matrixIdNS1_15basic_row_majorImlEENS1_15unbounded_arrayIdSaIdEEEEEEC2Ev, @function
_ZN5boost7numeric5ublas17matrix_expressionINS1_6matrixIdNS1_15basic_row_majorImlEENS1_15unbounded_arrayIdSaIdEEEEEEC2Ev:
.LFB8328:
	.cfi_startproc
	endbr64
	pushq	%rbp
	.cfi_def_cfa_offset 16
	.cfi_offset 6, -16
	movq	%rsp, %rbp
	.cfi_def_cfa_register 6
	subq	$16, %rsp
	movq	%rdi, -8(%rbp)
	movq	-8(%rbp), %rax
	movq	%rax, %rdi
	call	_ZN5boost7numeric5ublas16ublas_expressionINS1_6matrixIdNS1_15basic_row_majorImlEENS1_15unbounded_arrayIdSaIdEEEEEEC2Ev
	nop
	leave
	.cfi_def_cfa 7, 8
	ret
	.cfi_endproc
.LFE8328:
	.size	_ZN5boost7numeric5ublas17matrix_expressionINS1_6matrixIdNS1_15basic_row_majorImlEENS1_15unbounded_arrayIdSaIdEEEEEEC2Ev, .-_ZN5boost7numeric5ublas17matrix_expressionINS1_6matrixIdNS1_15basic_row_majorImlEENS1_15unbounded_arrayIdSaIdEEEEEEC2Ev
	.weak	_ZN5boost7numeric5ublas17matrix_expressionINS1_6matrixIdNS1_15basic_row_majorImlEENS1_15unbounded_arrayIdSaIdEEEEEEC1Ev
	.set	_ZN5boost7numeric5ublas17matrix_expressionINS1_6matrixIdNS1_15basic_row_majorImlEENS1_15unbounded_arrayIdSaIdEEEEEEC1Ev,_ZN5boost7numeric5ublas17matrix_expressionINS1_6matrixIdNS1_15basic_row_majorImlEENS1_15unbounded_arrayIdSaIdEEEEEEC2Ev
	.section	.text._ZN5boost7numeric5ublas16matrix_containerINS1_6matrixIdNS1_15basic_row_majorImlEENS1_15unbounded_arrayIdSaIdEEEEEEC2Ev,"axG",@progbits,_ZN5boost7numeric5ublas16matrix_containerINS1_6matrixIdNS1_15basic_row_majorImlEENS1_15unbounded_arrayIdSaIdEEEEEEC5Ev,comdat
	.align 2
	.weak	_ZN5boost7numeric5ublas16matrix_containerINS1_6matrixIdNS1_15basic_row_majorImlEENS1_15unbounded_arrayIdSaIdEEEEEEC2Ev
	.type	_ZN5boost7numeric5ublas16matrix_containerINS1_6matrixIdNS1_15basic_row_majorImlEENS1_15unbounded_arrayIdSaIdEEEEEEC2Ev, @function
_ZN5boost7numeric5ublas16matrix_containerINS1_6matrixIdNS1_15basic_row_majorImlEENS1_15unbounded_arrayIdSaIdEEEEEEC2Ev:
.LFB8330:
	.cfi_startproc
	endbr64
	pushq	%rbp
	.cfi_def_cfa_offset 16
	.cfi_offset 6, -16
	movq	%rsp, %rbp
	.cfi_def_cfa_register 6
	subq	$16, %rsp
	movq	%rdi, -8(%rbp)
	movq	-8(%rbp), %rax
	movq	%rax, %rdi
	call	_ZN5boost7numeric5ublas17matrix_expressionINS1_6matrixIdNS1_15basic_row_majorImlEENS1_15unbounded_arrayIdSaIdEEEEEEC2Ev
	nop
	leave
	.cfi_def_cfa 7, 8
	ret
	.cfi_endproc
.LFE8330:
	.size	_ZN5boost7numeric5ublas16matrix_containerINS1_6matrixIdNS1_15basic_row_majorImlEENS1_15unbounded_arrayIdSaIdEEEEEEC2Ev, .-_ZN5boost7numeric5ublas16matrix_containerINS1_6matrixIdNS1_15basic_row_majorImlEENS1_15unbounded_arrayIdSaIdEEEEEEC2Ev
	.weak	_ZN5boost7numeric5ublas16matrix_containerINS1_6matrixIdNS1_15basic_row_majorImlEENS1_15unbounded_arrayIdSaIdEEEEEEC1Ev
	.set	_ZN5boost7numeric5ublas16matrix_containerINS1_6matrixIdNS1_15basic_row_majorImlEENS1_15unbounded_arrayIdSaIdEEEEEEC1Ev,_ZN5boost7numeric5ublas16matrix_containerINS1_6matrixIdNS1_15basic_row_majorImlEENS1_15unbounded_arrayIdSaIdEEEEEEC2Ev
	.section	.text._ZN5boost7numeric5ublas6matrixIdNS1_15basic_row_majorImlEENS1_15unbounded_arrayIdSaIdEEEEC2Emm,"axG",@progbits,_ZN5boost7numeric5ublas6matrixIdNS1_15basic_row_majorImlEENS1_15unbounded_arrayIdSaIdEEEEC5Emm,comdat
	.align 2
	.weak	_ZN5boost7numeric5ublas6matrixIdNS1_15basic_row_majorImlEENS1_15unbounded_arrayIdSaIdEEEEC2Emm
	.type	_ZN5boost7numeric5ublas6matrixIdNS1_15basic_row_majorImlEENS1_15unbounded_arrayIdSaIdEEEEC2Emm, @function
_ZN5boost7numeric5ublas6matrixIdNS1_15basic_row_majorImlEENS1_15unbounded_arrayIdSaIdEEEEC2Emm:
.LFB8332:
	.cfi_startproc
	.cfi_personality 0x9b,DW.ref.__gxx_personality_v0
	.cfi_lsda 0x1b,.LLSDA8332
	endbr64
	pushq	%rbp
	.cfi_def_cfa_offset 16
	.cfi_offset 6, -16
	movq	%rsp, %rbp
	.cfi_def_cfa_register 6
	pushq	%rbx
	subq	$56, %rsp
	.cfi_offset 3, -24
	movq	%rdi, -40(%rbp)
	movq	%rsi, -48(%rbp)
	movq	%rdx, -56(%rbp)
	movq	%fs:40, %rax
	movq	%rax, -24(%rbp)
	xorl	%eax, %eax
	movq	-40(%rbp), %rax
	movq	%rax, %rdi
	call	_ZN5boost7numeric5ublas16matrix_containerINS1_6matrixIdNS1_15basic_row_majorImlEENS1_15unbounded_arrayIdSaIdEEEEEEC2Ev
	movq	-40(%rbp), %rax
	movq	-48(%rbp), %rdx
	movq	%rdx, (%rax)
	movq	-40(%rbp), %rax
	movq	-56(%rbp), %rdx
	movq	%rdx, 8(%rax)
	movq	-40(%rbp), %rax
	leaq	16(%rax), %rbx
	leaq	-25(%rbp), %rax
	movq	%rax, %rdi
	call	_ZNSaIdEC1Ev
	movq	-56(%rbp), %rdx
	movq	-48(%rbp), %rax
	movq	%rdx, %rsi
	movq	%rax, %rdi
.LEHB6:
	call	_ZN5boost7numeric5ublas15basic_row_majorImlE12storage_sizeEmm
	movq	%rax, %rcx
	leaq	-25(%rbp), %rax
	movq	%rax, %rdx
	movq	%rcx, %rsi
	movq	%rbx, %rdi
	call	_ZN5boost7numeric5ublas15unbounded_arrayIdSaIdEEC1EmRKS3_
.LEHE6:
	leaq	-25(%rbp), %rax
	movq	%rax, %rdi
	call	_ZNSaIdED1Ev
	nop
	movq	-24(%rbp), %rax
	subq	%fs:40, %rax
	je	.L83
	jmp	.L85
.L84:
	endbr64
	movq	%rax, %rbx
	leaq	-25(%rbp), %rax
	movq	%rax, %rdi
	call	_ZNSaIdED1Ev
	movq	-40(%rbp), %rax
	movq	%rax, %rdi
	call	_ZN5boost7numeric5ublas16matrix_containerINS1_6matrixIdNS1_15basic_row_majorImlEENS1_15unbounded_arrayIdSaIdEEEEEED2Ev
	movq	%rbx, %rax
	movq	%rax, %rdi
.LEHB7:
	call	_Unwind_Resume@PLT
.LEHE7:
.L85:
	call	__stack_chk_fail@PLT
.L83:
	movq	-8(%rbp), %rbx
	leave
	.cfi_def_cfa 7, 8
	ret
	.cfi_endproc
.LFE8332:
	.section	.gcc_except_table
.LLSDA8332:
	.byte	0xff
	.byte	0xff
	.byte	0x1
	.uleb128 .LLSDACSE8332-.LLSDACSB8332
.LLSDACSB8332:
	.uleb128 .LEHB6-.LFB8332
	.uleb128 .LEHE6-.LEHB6
	.uleb128 .L84-.LFB8332
	.uleb128 0
	.uleb128 .LEHB7-.LFB8332
	.uleb128 .LEHE7-.LEHB7
	.uleb128 0
	.uleb128 0
.LLSDACSE8332:
	.section	.text._ZN5boost7numeric5ublas6matrixIdNS1_15basic_row_majorImlEENS1_15unbounded_arrayIdSaIdEEEEC2Emm,"axG",@progbits,_ZN5boost7numeric5ublas6matrixIdNS1_15basic_row_majorImlEENS1_15unbounded_arrayIdSaIdEEEEC5Emm,comdat
	.size	_ZN5boost7numeric5ublas6matrixIdNS1_15basic_row_majorImlEENS1_15unbounded_arrayIdSaIdEEEEC2Emm, .-_ZN5boost7numeric5ublas6matrixIdNS1_15basic_row_majorImlEENS1_15unbounded_arrayIdSaIdEEEEC2Emm
	.weak	_ZN5boost7numeric5ublas6matrixIdNS1_15basic_row_majorImlEENS1_15unbounded_arrayIdSaIdEEEEC1Emm
	.set	_ZN5boost7numeric5ublas6matrixIdNS1_15basic_row_majorImlEENS1_15unbounded_arrayIdSaIdEEEEC1Emm,_ZN5boost7numeric5ublas6matrixIdNS1_15basic_row_majorImlEENS1_15unbounded_arrayIdSaIdEEEEC2Emm
	.section	.text._ZN5boost7numeric5ublas16ublas_expressionINS1_6matrixIdNS1_15basic_row_majorImlEENS1_15unbounded_arrayIdSaIdEEEEEED2Ev,"axG",@progbits,_ZN5boost7numeric5ublas16ublas_expressionINS1_6matrixIdNS1_15basic_row_majorImlEENS1_15unbounded_arrayIdSaIdEEEEEED5Ev,comdat
	.align 2
	.weak	_ZN5boost7numeric5ublas16ublas_expressionINS1_6matrixIdNS1_15basic_row_majorImlEENS1_15unbounded_arrayIdSaIdEEEEEED2Ev
	.type	_ZN5boost7numeric5ublas16ublas_expressionINS1_6matrixIdNS1_15basic_row_majorImlEENS1_15unbounded_arrayIdSaIdEEEEEED2Ev, @function
_ZN5boost7numeric5ublas16ublas_expressionINS1_6matrixIdNS1_15basic_row_majorImlEENS1_15unbounded_arrayIdSaIdEEEEEED2Ev:
.LFB8335:
	.cfi_startproc
	endbr64
	pushq	%rbp
	.cfi_def_cfa_offset 16
	.cfi_offset 6, -16
	movq	%rsp, %rbp
	.cfi_def_cfa_register 6
	movq	%rdi, -8(%rbp)
	nop
	popq	%rbp
	.cfi_def_cfa 7, 8
	ret
	.cfi_endproc
.LFE8335:
	.size	_ZN5boost7numeric5ublas16ublas_expressionINS1_6matrixIdNS1_15basic_row_majorImlEENS1_15unbounded_arrayIdSaIdEEEEEED2Ev, .-_ZN5boost7numeric5ublas16ublas_expressionINS1_6matrixIdNS1_15basic_row_majorImlEENS1_15unbounded_arrayIdSaIdEEEEEED2Ev
	.weak	_ZN5boost7numeric5ublas16ublas_expressionINS1_6matrixIdNS1_15basic_row_majorImlEENS1_15unbounded_arrayIdSaIdEEEEEED1Ev
	.set	_ZN5boost7numeric5ublas16ublas_expressionINS1_6matrixIdNS1_15basic_row_majorImlEENS1_15unbounded_arrayIdSaIdEEEEEED1Ev,_ZN5boost7numeric5ublas16ublas_expressionINS1_6matrixIdNS1_15basic_row_majorImlEENS1_15unbounded_arrayIdSaIdEEEEEED2Ev
	.section	.text._ZN5boost7numeric5ublas13storage_arrayINS1_15unbounded_arrayIdSaIdEEEED2Ev,"axG",@progbits,_ZN5boost7numeric5ublas13storage_arrayINS1_15unbounded_arrayIdSaIdEEEED5Ev,comdat
	.align 2
	.weak	_ZN5boost7numeric5ublas13storage_arrayINS1_15unbounded_arrayIdSaIdEEEED2Ev
	.type	_ZN5boost7numeric5ublas13storage_arrayINS1_15unbounded_arrayIdSaIdEEEED2Ev, @function
_ZN5boost7numeric5ublas13storage_arrayINS1_15unbounded_arrayIdSaIdEEEED2Ev:
.LFB8339:
	.cfi_startproc
	endbr64
	pushq	%rbp
	.cfi_def_cfa_offset 16
	.cfi_offset 6, -16
	movq	%rsp, %rbp
	.cfi_def_cfa_register 6
	subq	$16, %rsp
	movq	%rdi, -8(%rbp)
	movq	-8(%rbp), %rax
	movq	%rax, %rdi
	call	_ZN5boost7numeric5ublas14nonassignable_13nonassignableD2Ev
	nop
	leave
	.cfi_def_cfa 7, 8
	ret
	.cfi_endproc
.LFE8339:
	.size	_ZN5boost7numeric5ublas13storage_arrayINS1_15unbounded_arrayIdSaIdEEEED2Ev, .-_ZN5boost7numeric5ublas13storage_arrayINS1_15unbounded_arrayIdSaIdEEEED2Ev
	.weak	_ZN5boost7numeric5ublas13storage_arrayINS1_15unbounded_arrayIdSaIdEEEED1Ev
	.set	_ZN5boost7numeric5ublas13storage_arrayINS1_15unbounded_arrayIdSaIdEEEED1Ev,_ZN5boost7numeric5ublas13storage_arrayINS1_15unbounded_arrayIdSaIdEEEED2Ev
	.section	.text._ZN5boost7numeric5ublas15unbounded_arrayIdSaIdEED2Ev,"axG",@progbits,_ZN5boost7numeric5ublas15unbounded_arrayIdSaIdEED5Ev,comdat
	.align 2
	.weak	_ZN5boost7numeric5ublas15unbounded_arrayIdSaIdEED2Ev
	.type	_ZN5boost7numeric5ublas15unbounded_arrayIdSaIdEED2Ev, @function
_ZN5boost7numeric5ublas15unbounded_arrayIdSaIdEED2Ev:
.LFB8341:
	.cfi_startproc
	endbr64
	pushq	%rbp
	.cfi_def_cfa_offset 16
	.cfi_offset 6, -16
	movq	%rsp, %rbp
	.cfi_def_cfa_register 6
	subq	$32, %rsp
	movq	%rdi, -24(%rbp)
	movq	%fs:40, %rax
	movq	%rax, -8(%rbp)
	xorl	%eax, %eax
	movq	-24(%rbp), %rax
	movq	8(%rax), %rax
	testq	%rax, %rax
	je	.L89
	movq	-24(%rbp), %rax
	movq	-24(%rbp), %rdx
	movq	8(%rdx), %rdx
	movq	-24(%rbp), %rcx
	movq	16(%rcx), %rcx
	movq	%rcx, %rsi
	movq	%rax, %rdi
	call	_ZN9__gnu_cxx13new_allocatorIdE10deallocateEPdm
.L89:
	movq	-24(%rbp), %rax
	movq	%rax, %rdi
	call	_ZNSaIdED1Ev
	movq	-24(%rbp), %rax
	movq	%rax, %rdi
	call	_ZN5boost7numeric5ublas13storage_arrayINS1_15unbounded_arrayIdSaIdEEEED2Ev
	nop
	movq	-8(%rbp), %rax
	subq	%fs:40, %rax
	je	.L90
	call	__stack_chk_fail@PLT
.L90:
	leave
	.cfi_def_cfa 7, 8
	ret
	.cfi_endproc
.LFE8341:
	.size	_ZN5boost7numeric5ublas15unbounded_arrayIdSaIdEED2Ev, .-_ZN5boost7numeric5ublas15unbounded_arrayIdSaIdEED2Ev
	.weak	_ZN5boost7numeric5ublas15unbounded_arrayIdSaIdEED1Ev
	.set	_ZN5boost7numeric5ublas15unbounded_arrayIdSaIdEED1Ev,_ZN5boost7numeric5ublas15unbounded_arrayIdSaIdEED2Ev
	.section	.text._ZN5boost7numeric5ublas6matrixIdNS1_15basic_row_majorImlEENS1_15unbounded_arrayIdSaIdEEEEclEmm,"axG",@progbits,_ZN5boost7numeric5ublas6matrixIdNS1_15basic_row_majorImlEENS1_15unbounded_arrayIdSaIdEEEEclEmm,comdat
	.align 2
	.weak	_ZN5boost7numeric5ublas6matrixIdNS1_15basic_row_majorImlEENS1_15unbounded_arrayIdSaIdEEEEclEmm
	.type	_ZN5boost7numeric5ublas6matrixIdNS1_15basic_row_majorImlEENS1_15unbounded_arrayIdSaIdEEEEclEmm, @function
_ZN5boost7numeric5ublas6matrixIdNS1_15basic_row_majorImlEENS1_15unbounded_arrayIdSaIdEEEEclEmm:
.LFB8343:
	.cfi_startproc
	endbr64
	pushq	%rbp
	.cfi_def_cfa_offset 16
	.cfi_offset 6, -16
	movq	%rsp, %rbp
	.cfi_def_cfa_register 6
	subq	$32, %rsp
	movq	%rdi, -8(%rbp)
	movq	%rsi, -16(%rbp)
	movq	%rdx, -24(%rbp)
	movq	-24(%rbp), %rdx
	movq	-16(%rbp), %rcx
	movq	-8(%rbp), %rax
	movq	%rcx, %rsi
	movq	%rax, %rdi
	call	_ZN5boost7numeric5ublas6matrixIdNS1_15basic_row_majorImlEENS1_15unbounded_arrayIdSaIdEEEE10at_elementEmm
	leave
	.cfi_def_cfa 7, 8
	ret
	.cfi_endproc
.LFE8343:
	.size	_ZN5boost7numeric5ublas6matrixIdNS1_15basic_row_majorImlEENS1_15unbounded_arrayIdSaIdEEEEclEmm, .-_ZN5boost7numeric5ublas6matrixIdNS1_15basic_row_majorImlEENS1_15unbounded_arrayIdSaIdEEEEclEmm
	.section	.text._ZN5boost7numeric5ublas4prodINS1_6matrixIdNS1_15basic_row_majorImlEENS1_15unbounded_arrayIdSaIdEEEEES9_EENS1_27matrix_matrix_binary_traitsINT_10value_typeESB_NT0_10value_typeESD_E11result_typeERKNS1_17matrix_expressionISB_EERKNSH_ISD_EE,"axG",@progbits,_ZN5boost7numeric5ublas4prodINS1_6matrixIdNS1_15basic_row_majorImlEENS1_15unbounded_arrayIdSaIdEEEEES9_EENS1_27matrix_matrix_binary_traitsINT_10value_typeESB_NT0_10value_typeESD_E11result_typeERKNS1_17matrix_expressionISB_EERKNSH_ISD_EE,comdat
	.weak	_ZN5boost7numeric5ublas4prodINS1_6matrixIdNS1_15basic_row_majorImlEENS1_15unbounded_arrayIdSaIdEEEEES9_EENS1_27matrix_matrix_binary_traitsINT_10value_typeESB_NT0_10value_typeESD_E11result_typeERKNS1_17matrix_expressionISB_EERKNSH_ISD_EE
	.type	_ZN5boost7numeric5ublas4prodINS1_6matrixIdNS1_15basic_row_majorImlEENS1_15unbounded_arrayIdSaIdEEEEES9_EENS1_27matrix_matrix_binary_traitsINT_10value_typeESB_NT0_10value_typeESD_E11result_typeERKNS1_17matrix_expressionISB_EERKNSH_ISD_EE, @function
_ZN5boost7numeric5ublas4prodINS1_6matrixIdNS1_15basic_row_majorImlEENS1_15unbounded_arrayIdSaIdEEEEES9_EENS1_27matrix_matrix_binary_traitsINT_10value_typeESB_NT0_10value_typeESD_E11result_typeERKNS1_17matrix_expressionISB_EERKNSH_ISD_EE:
.LFB8344:
	.cfi_startproc
	endbr64
	pushq	%rbp
	.cfi_def_cfa_offset 16
	.cfi_offset 6, -16
	movq	%rsp, %rbp
	.cfi_def_cfa_register 6
	subq	$48, %rsp
	movq	%rdi, -24(%rbp)
	movq	%rsi, -32(%rbp)
	movq	%rdx, -40(%rbp)
	movq	%fs:40, %rax
	movq	%rax, -8(%rbp)
	xorl	%eax, %eax
	movq	-24(%rbp), %rax
	movq	-40(%rbp), %rdx
	movq	-32(%rbp), %rcx
	movq	%rcx, %rsi
	movq	%rax, %rdi
	call	_ZN5boost7numeric5ublas4prodINS1_6matrixIdNS1_15basic_row_majorImlEENS1_15unbounded_arrayIdSaIdEEEEES9_EENS1_27matrix_matrix_binary_traitsINT_10value_typeESB_NT0_10value_typeESD_E11result_typeERKNS1_17matrix_expressionISB_EERKNSH_ISD_EENS1_19unknown_storage_tagENS1_23unknown_orientation_tagE
	movq	-8(%rbp), %rax
	subq	%fs:40, %rax
	je	.L95
	call	__stack_chk_fail@PLT
.L95:
	movq	-24(%rbp), %rax
	leave
	.cfi_def_cfa 7, 8
	ret
	.cfi_endproc
.LFE8344:
	.size	_ZN5boost7numeric5ublas4prodINS1_6matrixIdNS1_15basic_row_majorImlEENS1_15unbounded_arrayIdSaIdEEEEES9_EENS1_27matrix_matrix_binary_traitsINT_10value_typeESB_NT0_10value_typeESD_E11result_typeERKNS1_17matrix_expressionISB_EERKNSH_ISD_EE, .-_ZN5boost7numeric5ublas4prodINS1_6matrixIdNS1_15basic_row_majorImlEENS1_15unbounded_arrayIdSaIdEEEEES9_EENS1_27matrix_matrix_binary_traitsINT_10value_typeESB_NT0_10value_typeESD_E11result_typeERKNS1_17matrix_expressionISB_EERKNSH_ISD_EE
	.section	.text._ZN5boost7numeric5ublas16ublas_expressionINS1_20matrix_matrix_binaryINS1_6matrixIdNS1_15basic_row_majorImlEENS1_15unbounded_arrayIdSaIdEEEEESA_NS1_18matrix_matrix_prodISA_SA_dEEEEED2Ev,"axG",@progbits,_ZN5boost7numeric5ublas16ublas_expressionINS1_20matrix_matrix_binaryINS1_6matrixIdNS1_15basic_row_majorImlEENS1_15unbounded_arrayIdSaIdEEEEESA_NS1_18matrix_matrix_prodISA_SA_dEEEEED5Ev,comdat
	.align 2
	.weak	_ZN5boost7numeric5ublas16ublas_expressionINS1_20matrix_matrix_binaryINS1_6matrixIdNS1_15basic_row_majorImlEENS1_15unbounded_arrayIdSaIdEEEEESA_NS1_18matrix_matrix_prodISA_SA_dEEEEED2Ev
	.type	_ZN5boost7numeric5ublas16ublas_expressionINS1_20matrix_matrix_binaryINS1_6matrixIdNS1_15basic_row_majorImlEENS1_15unbounded_arrayIdSaIdEEEEESA_NS1_18matrix_matrix_prodISA_SA_dEEEEED2Ev, @function
_ZN5boost7numeric5ublas16ublas_expressionINS1_20matrix_matrix_binaryINS1_6matrixIdNS1_15basic_row_majorImlEENS1_15unbounded_arrayIdSaIdEEEEESA_NS1_18matrix_matrix_prodISA_SA_dEEEEED2Ev:
.LFB8346:
	.cfi_startproc
	endbr64
	pushq	%rbp
	.cfi_def_cfa_offset 16
	.cfi_offset 6, -16
	movq	%rsp, %rbp
	.cfi_def_cfa_register 6
	movq	%rdi, -8(%rbp)
	nop
	popq	%rbp
	.cfi_def_cfa 7, 8
	ret
	.cfi_endproc
.LFE8346:
	.size	_ZN5boost7numeric5ublas16ublas_expressionINS1_20matrix_matrix_binaryINS1_6matrixIdNS1_15basic_row_majorImlEENS1_15unbounded_arrayIdSaIdEEEEESA_NS1_18matrix_matrix_prodISA_SA_dEEEEED2Ev, .-_ZN5boost7numeric5ublas16ublas_expressionINS1_20matrix_matrix_binaryINS1_6matrixIdNS1_15basic_row_majorImlEENS1_15unbounded_arrayIdSaIdEEEEESA_NS1_18matrix_matrix_prodISA_SA_dEEEEED2Ev
	.weak	_ZN5boost7numeric5ublas16ublas_expressionINS1_20matrix_matrix_binaryINS1_6matrixIdNS1_15basic_row_majorImlEENS1_15unbounded_arrayIdSaIdEEEEESA_NS1_18matrix_matrix_prodISA_SA_dEEEEED1Ev
	.set	_ZN5boost7numeric5ublas16ublas_expressionINS1_20matrix_matrix_binaryINS1_6matrixIdNS1_15basic_row_majorImlEENS1_15unbounded_arrayIdSaIdEEEEESA_NS1_18matrix_matrix_prodISA_SA_dEEEEED1Ev,_ZN5boost7numeric5ublas16ublas_expressionINS1_20matrix_matrix_binaryINS1_6matrixIdNS1_15basic_row_majorImlEENS1_15unbounded_arrayIdSaIdEEEEESA_NS1_18matrix_matrix_prodISA_SA_dEEEEED2Ev
	.section	.text._ZN5boost7numeric5ublas16ublas_expressionINS1_16matrix_referenceIKNS1_6matrixIdNS1_15basic_row_majorImlEENS1_15unbounded_arrayIdSaIdEEEEEEEED2Ev,"axG",@progbits,_ZN5boost7numeric5ublas16ublas_expressionINS1_16matrix_referenceIKNS1_6matrixIdNS1_15basic_row_majorImlEENS1_15unbounded_arrayIdSaIdEEEEEEEED5Ev,comdat
	.align 2
	.weak	_ZN5boost7numeric5ublas16ublas_expressionINS1_16matrix_referenceIKNS1_6matrixIdNS1_15basic_row_majorImlEENS1_15unbounded_arrayIdSaIdEEEEEEEED2Ev
	.type	_ZN5boost7numeric5ublas16ublas_expressionINS1_16matrix_referenceIKNS1_6matrixIdNS1_15basic_row_majorImlEENS1_15unbounded_arrayIdSaIdEEEEEEEED2Ev, @function
_ZN5boost7numeric5ublas16ublas_expressionINS1_16matrix_referenceIKNS1_6matrixIdNS1_15basic_row_majorImlEENS1_15unbounded_arrayIdSaIdEEEEEEEED2Ev:
.LFB8349:
	.cfi_startproc
	endbr64
	pushq	%rbp
	.cfi_def_cfa_offset 16
	.cfi_offset 6, -16
	movq	%rsp, %rbp
	.cfi_def_cfa_register 6
	movq	%rdi, -8(%rbp)
	nop
	popq	%rbp
	.cfi_def_cfa 7, 8
	ret
	.cfi_endproc
.LFE8349:
	.size	_ZN5boost7numeric5ublas16ublas_expressionINS1_16matrix_referenceIKNS1_6matrixIdNS1_15basic_row_majorImlEENS1_15unbounded_arrayIdSaIdEEEEEEEED2Ev, .-_ZN5boost7numeric5ublas16ublas_expressionINS1_16matrix_referenceIKNS1_6matrixIdNS1_15basic_row_majorImlEENS1_15unbounded_arrayIdSaIdEEEEEEEED2Ev
	.weak	_ZN5boost7numeric5ublas16ublas_expressionINS1_16matrix_referenceIKNS1_6matrixIdNS1_15basic_row_majorImlEENS1_15unbounded_arrayIdSaIdEEEEEEEED1Ev
	.set	_ZN5boost7numeric5ublas16ublas_expressionINS1_16matrix_referenceIKNS1_6matrixIdNS1_15basic_row_majorImlEENS1_15unbounded_arrayIdSaIdEEEEEEEED1Ev,_ZN5boost7numeric5ublas16ublas_expressionINS1_16matrix_referenceIKNS1_6matrixIdNS1_15basic_row_majorImlEENS1_15unbounded_arrayIdSaIdEEEEEEEED2Ev
	.section	.text._ZN5boost7numeric5ublas6matrixIdNS1_15basic_row_majorImlEENS1_15unbounded_arrayIdSaIdEEEEC2INS1_20matrix_matrix_binaryIS8_S8_NS1_18matrix_matrix_prodIS8_S8_dEEEEEERKNS1_17matrix_expressionIT_EE,"axG",@progbits,_ZN5boost7numeric5ublas6matrixIdNS1_15basic_row_majorImlEENS1_15unbounded_arrayIdSaIdEEEEC5INS1_20matrix_matrix_binaryIS8_S8_NS1_18matrix_matrix_prodIS8_S8_dEEEEEERKNS1_17matrix_expressionIT_EE,comdat
	.align 2
	.weak	_ZN5boost7numeric5ublas6matrixIdNS1_15basic_row_majorImlEENS1_15unbounded_arrayIdSaIdEEEEC2INS1_20matrix_matrix_binaryIS8_S8_NS1_18matrix_matrix_prodIS8_S8_dEEEEEERKNS1_17matrix_expressionIT_EE
	.type	_ZN5boost7numeric5ublas6matrixIdNS1_15basic_row_majorImlEENS1_15unbounded_arrayIdSaIdEEEEC2INS1_20matrix_matrix_binaryIS8_S8_NS1_18matrix_matrix_prodIS8_S8_dEEEEEERKNS1_17matrix_expressionIT_EE, @function
_ZN5boost7numeric5ublas6matrixIdNS1_15basic_row_majorImlEENS1_15unbounded_arrayIdSaIdEEEEC2INS1_20matrix_matrix_binaryIS8_S8_NS1_18matrix_matrix_prodIS8_S8_dEEEEEERKNS1_17matrix_expressionIT_EE:
.LFB8352:
	.cfi_startproc
	.cfi_personality 0x9b,DW.ref.__gxx_personality_v0
	.cfi_lsda 0x1b,.LLSDA8352
	endbr64
	pushq	%rbp
	.cfi_def_cfa_offset 16
	.cfi_offset 6, -16
	movq	%rsp, %rbp
	.cfi_def_cfa_register 6
	pushq	%rbx
	subq	$40, %rsp
	.cfi_offset 3, -24
	movq	%rdi, -40(%rbp)
	movq	%rsi, -48(%rbp)
	movq	%fs:40, %rax
	movq	%rax, -24(%rbp)
	xorl	%eax, %eax
	movq	-40(%rbp), %rax
	movq	%rax, %rdi
	call	_ZN5boost7numeric5ublas16matrix_containerINS1_6matrixIdNS1_15basic_row_majorImlEENS1_15unbounded_arrayIdSaIdEEEEEEC2Ev
	movq	-48(%rbp), %rax
	movq	%rax, %rdi
	call	_ZNK5boost7numeric5ublas17matrix_expressionINS1_20matrix_matrix_binaryINS1_6matrixIdNS1_15basic_row_majorImlEENS1_15unbounded_arrayIdSaIdEEEEESA_NS1_18matrix_matrix_prodISA_SA_dEEEEEclEv
	movq	%rax, %rdi
.LEHB8:
	call	_ZNK5boost7numeric5ublas20matrix_matrix_binaryINS1_6matrixIdNS1_15basic_row_majorImlEENS1_15unbounded_arrayIdSaIdEEEEES9_NS1_18matrix_matrix_prodIS9_S9_dEEE5size1Ev
	movq	-40(%rbp), %rdx
	movq	%rax, (%rdx)
	movq	-48(%rbp), %rax
	movq	%rax, %rdi
	call	_ZNK5boost7numeric5ublas17matrix_expressionINS1_20matrix_matrix_binaryINS1_6matrixIdNS1_15basic_row_majorImlEENS1_15unbounded_arrayIdSaIdEEEEESA_NS1_18matrix_matrix_prodISA_SA_dEEEEEclEv
	movq	%rax, %rdi
	call	_ZNK5boost7numeric5ublas20matrix_matrix_binaryINS1_6matrixIdNS1_15basic_row_majorImlEENS1_15unbounded_arrayIdSaIdEEEEES9_NS1_18matrix_matrix_prodIS9_S9_dEEE5size2Ev
.LEHE8:
	movq	-40(%rbp), %rdx
	movq	%rax, 8(%rdx)
	movq	-40(%rbp), %rax
	leaq	16(%rax), %rbx
	leaq	-25(%rbp), %rax
	movq	%rax, %rdi
	call	_ZNSaIdEC1Ev
	movq	-40(%rbp), %rax
	movq	8(%rax), %rdx
	movq	-40(%rbp), %rax
	movq	(%rax), %rax
	movq	%rdx, %rsi
	movq	%rax, %rdi
.LEHB9:
	call	_ZN5boost7numeric5ublas15basic_row_majorImlE12storage_sizeEmm
	movq	%rax, %rcx
	leaq	-25(%rbp), %rax
	movq	%rax, %rdx
	movq	%rcx, %rsi
	movq	%rbx, %rdi
	call	_ZN5boost7numeric5ublas15unbounded_arrayIdSaIdEEC1EmRKS3_
.LEHE9:
	leaq	-25(%rbp), %rax
	movq	%rax, %rdi
	call	_ZNSaIdED1Ev
	movq	-48(%rbp), %rdx
	movq	-40(%rbp), %rax
	movq	%rdx, %rsi
	movq	%rax, %rdi
.LEHB10:
	call	_ZN5boost7numeric5ublas13matrix_assignINS1_13scalar_assignENS1_6matrixIdNS1_15basic_row_majorImlEENS1_15unbounded_arrayIdSaIdEEEEENS1_20matrix_matrix_binaryISA_SA_NS1_18matrix_matrix_prodISA_SA_dEEEEEEvRT0_RKNS1_17matrix_expressionIT1_EE
.LEHE10:
	jmp	.L106
.L104:
	endbr64
	movq	%rax, %rbx
	leaq	-25(%rbp), %rax
	movq	%rax, %rdi
	call	_ZNSaIdED1Ev
	jmp	.L100
.L105:
	endbr64
	movq	%rax, %rbx
	movq	-40(%rbp), %rax
	addq	$16, %rax
	movq	%rax, %rdi
	call	_ZN5boost7numeric5ublas15unbounded_arrayIdSaIdEED1Ev
	jmp	.L100
.L103:
	endbr64
	movq	%rax, %rbx
.L100:
	movq	-40(%rbp), %rax
	movq	%rax, %rdi
	call	_ZN5boost7numeric5ublas16matrix_containerINS1_6matrixIdNS1_15basic_row_majorImlEENS1_15unbounded_arrayIdSaIdEEEEEED2Ev
	movq	%rbx, %rax
	movq	%rax, %rdi
.LEHB11:
	call	_Unwind_Resume@PLT
.LEHE11:
.L106:
	movq	-24(%rbp), %rax
	subq	%fs:40, %rax
	je	.L102
	call	__stack_chk_fail@PLT
.L102:
	movq	-8(%rbp), %rbx
	leave
	.cfi_def_cfa 7, 8
	ret
	.cfi_endproc
.LFE8352:
	.section	.gcc_except_table
.LLSDA8352:
	.byte	0xff
	.byte	0xff
	.byte	0x1
	.uleb128 .LLSDACSE8352-.LLSDACSB8352
.LLSDACSB8352:
	.uleb128 .LEHB8-.LFB8352
	.uleb128 .LEHE8-.LEHB8
	.uleb128 .L103-.LFB8352
	.uleb128 0
	.uleb128 .LEHB9-.LFB8352
	.uleb128 .LEHE9-.LEHB9
	.uleb128 .L104-.LFB8352
	.uleb128 0
	.uleb128 .LEHB10-.LFB8352
	.uleb128 .LEHE10-.LEHB10
	.uleb128 .L105-.LFB8352
	.uleb128 0
	.uleb128 .LEHB11-.LFB8352
	.uleb128 .LEHE11-.LEHB11
	.uleb128 0
	.uleb128 0
.LLSDACSE8352:
	.section	.text._ZN5boost7numeric5ublas6matrixIdNS1_15basic_row_majorImlEENS1_15unbounded_arrayIdSaIdEEEEC2INS1_20matrix_matrix_binaryIS8_S8_NS1_18matrix_matrix_prodIS8_S8_dEEEEEERKNS1_17matrix_expressionIT_EE,"axG",@progbits,_ZN5boost7numeric5ublas6matrixIdNS1_15basic_row_majorImlEENS1_15unbounded_arrayIdSaIdEEEEC5INS1_20matrix_matrix_binaryIS8_S8_NS1_18matrix_matrix_prodIS8_S8_dEEEEEERKNS1_17matrix_expressionIT_EE,comdat
	.size	_ZN5boost7numeric5ublas6matrixIdNS1_15basic_row_majorImlEENS1_15unbounded_arrayIdSaIdEEEEC2INS1_20matrix_matrix_binaryIS8_S8_NS1_18matrix_matrix_prodIS8_S8_dEEEEEERKNS1_17matrix_expressionIT_EE, .-_ZN5boost7numeric5ublas6matrixIdNS1_15basic_row_majorImlEENS1_15unbounded_arrayIdSaIdEEEEC2INS1_20matrix_matrix_binaryIS8_S8_NS1_18matrix_matrix_prodIS8_S8_dEEEEEERKNS1_17matrix_expressionIT_EE
	.weak	_ZN5boost7numeric5ublas6matrixIdNS1_15basic_row_majorImlEENS1_15unbounded_arrayIdSaIdEEEEC1INS1_20matrix_matrix_binaryIS8_S8_NS1_18matrix_matrix_prodIS8_S8_dEEEEEERKNS1_17matrix_expressionIT_EE
	.set	_ZN5boost7numeric5ublas6matrixIdNS1_15basic_row_majorImlEENS1_15unbounded_arrayIdSaIdEEEEC1INS1_20matrix_matrix_binaryIS8_S8_NS1_18matrix_matrix_prodIS8_S8_dEEEEEERKNS1_17matrix_expressionIT_EE,_ZN5boost7numeric5ublas6matrixIdNS1_15basic_row_majorImlEENS1_15unbounded_arrayIdSaIdEEEEC2INS1_20matrix_matrix_binaryIS8_S8_NS1_18matrix_matrix_prodIS8_S8_dEEEEEERKNS1_17matrix_expressionIT_EE
	.section	.text._ZNSt6chrono13duration_castINS_8durationIdSt5ratioILl1ELl1EEEElS2_ILl1ELl1000000000EEEENSt9enable_ifIXsrNS_13__is_durationIT_EE5valueES8_E4typeERKNS1_IT0_T1_EE,"axG",@progbits,_ZNSt6chrono13duration_castINS_8durationIdSt5ratioILl1ELl1EEEElS2_ILl1ELl1000000000EEEENSt9enable_ifIXsrNS_13__is_durationIT_EE5valueES8_E4typeERKNS1_IT0_T1_EE,comdat
	.weak	_ZNSt6chrono13duration_castINS_8durationIdSt5ratioILl1ELl1EEEElS2_ILl1ELl1000000000EEEENSt9enable_ifIXsrNS_13__is_durationIT_EE5valueES8_E4typeERKNS1_IT0_T1_EE
	.type	_ZNSt6chrono13duration_castINS_8durationIdSt5ratioILl1ELl1EEEElS2_ILl1ELl1000000000EEEENSt9enable_ifIXsrNS_13__is_durationIT_EE5valueES8_E4typeERKNS1_IT0_T1_EE, @function
_ZNSt6chrono13duration_castINS_8durationIdSt5ratioILl1ELl1EEEElS2_ILl1ELl1000000000EEEENSt9enable_ifIXsrNS_13__is_durationIT_EE5valueES8_E4typeERKNS1_IT0_T1_EE:
.LFB8354:
	.cfi_startproc
	endbr64
	pushq	%rbp
	.cfi_def_cfa_offset 16
	.cfi_offset 6, -16
	movq	%rsp, %rbp
	.cfi_def_cfa_register 6
	subq	$16, %rsp
	movq	%rdi, -8(%rbp)
	movq	-8(%rbp), %rax
	movq	%rax, %rdi
	call	_ZNSt6chrono20__duration_cast_implINS_8durationIdSt5ratioILl1ELl1EEEES2_ILl1ELl1000000000EEdLb1ELb0EE6__castIlS5_EES4_RKNS1_IT_T0_EE
	movq	%xmm0, %rax
	movq	%rax, %xmm0
	leave
	.cfi_def_cfa 7, 8
	ret
	.cfi_endproc
.LFE8354:
	.size	_ZNSt6chrono13duration_castINS_8durationIdSt5ratioILl1ELl1EEEElS2_ILl1ELl1000000000EEEENSt9enable_ifIXsrNS_13__is_durationIT_EE5valueES8_E4typeERKNS1_IT0_T1_EE, .-_ZNSt6chrono13duration_castINS_8durationIdSt5ratioILl1ELl1EEEElS2_ILl1ELl1000000000EEEENSt9enable_ifIXsrNS_13__is_durationIT_EE5valueES8_E4typeERKNS1_IT0_T1_EE
	.section	.text._ZNKSt6chrono8durationIdSt5ratioILl1ELl1EEE5countEv,"axG",@progbits,_ZNKSt6chrono8durationIdSt5ratioILl1ELl1EEE5countEv,comdat
	.align 2
	.weak	_ZNKSt6chrono8durationIdSt5ratioILl1ELl1EEE5countEv
	.type	_ZNKSt6chrono8durationIdSt5ratioILl1ELl1EEE5countEv, @function
_ZNKSt6chrono8durationIdSt5ratioILl1ELl1EEE5countEv:
.LFB8355:
	.cfi_startproc
	endbr64
	pushq	%rbp
	.cfi_def_cfa_offset 16
	.cfi_offset 6, -16
	movq	%rsp, %rbp
	.cfi_def_cfa_register 6
	movq	%rdi, -8(%rbp)
	movq	-8(%rbp), %rax
	movsd	(%rax), %xmm0
	movq	%xmm0, %rax
	movq	%rax, %xmm0
	popq	%rbp
	.cfi_def_cfa 7, 8
	ret
	.cfi_endproc
.LFE8355:
	.size	_ZNKSt6chrono8durationIdSt5ratioILl1ELl1EEE5countEv, .-_ZNKSt6chrono8durationIdSt5ratioILl1ELl1EEE5countEv
	.section	.text._ZNSt6chrono20__duration_cast_implINS_8durationIlSt5ratioILl1ELl1EEEES2_ILl1ELl1000000000EElLb1ELb0EE6__castIlS5_EES4_RKNS1_IT_T0_EE,"axG",@progbits,_ZNSt6chrono20__duration_cast_implINS_8durationIlSt5ratioILl1ELl1EEEES2_ILl1ELl1000000000EElLb1ELb0EE6__castIlS5_EES4_RKNS1_IT_T0_EE,comdat
	.weak	_ZNSt6chrono20__duration_cast_implINS_8durationIlSt5ratioILl1ELl1EEEES2_ILl1ELl1000000000EElLb1ELb0EE6__castIlS5_EES4_RKNS1_IT_T0_EE
	.type	_ZNSt6chrono20__duration_cast_implINS_8durationIlSt5ratioILl1ELl1EEEES2_ILl1ELl1000000000EElLb1ELb0EE6__castIlS5_EES4_RKNS1_IT_T0_EE, @function
_ZNSt6chrono20__duration_cast_implINS_8durationIlSt5ratioILl1ELl1EEEES2_ILl1ELl1000000000EElLb1ELb0EE6__castIlS5_EES4_RKNS1_IT_T0_EE:
.LFB8489:
	.cfi_startproc
	endbr64
	pushq	%rbp
	.cfi_def_cfa_offset 16
	.cfi_offset 6, -16
	movq	%rsp, %rbp
	.cfi_def_cfa_register 6
	subq	$48, %rsp
	movq	%rdi, -40(%rbp)
	movq	%fs:40, %rax
	movq	%rax, -8(%rbp)
	xorl	%eax, %eax
	movq	-40(%rbp), %rax
	movq	%rax, %rdi
	call	_ZNKSt6chrono8durationIlSt5ratioILl1ELl1000000000EEE5countEv
	movq	%rax, %rcx
	movabsq	$1237940039285380275, %rdx
	movq	%rcx, %rax
	imulq	%rdx
	movq	%rdx, %rax
	sarq	$26, %rax
	sarq	$63, %rcx
	movq	%rcx, %rdx
	subq	%rdx, %rax
	movq	%rax, -24(%rbp)
	leaq	-24(%rbp), %rdx
	leaq	-16(%rbp), %rax
	movq	%rdx, %rsi
	movq	%rax, %rdi
	call	_ZNSt6chrono8durationIlSt5ratioILl1ELl1EEEC1IlvEERKT_
	movq	-16(%rbp), %rax
	movq	-8(%rbp), %rdx
	subq	%fs:40, %rdx
	je	.L113
	call	__stack_chk_fail@PLT
.L113:
	leave
	.cfi_def_cfa 7, 8
	ret
	.cfi_endproc
.LFE8489:
	.size	_ZNSt6chrono20__duration_cast_implINS_8durationIlSt5ratioILl1ELl1EEEES2_ILl1ELl1000000000EElLb1ELb0EE6__castIlS5_EES4_RKNS1_IT_T0_EE, .-_ZNSt6chrono20__duration_cast_implINS_8durationIlSt5ratioILl1ELl1EEEES2_ILl1ELl1000000000EElLb1ELb0EE6__castIlS5_EES4_RKNS1_IT_T0_EE
	.section	.text._ZNK5boost7numeric5ublas6matrixIdNS1_15basic_row_majorImlEENS1_15unbounded_arrayIdSaIdEEEE4dataEv,"axG",@progbits,_ZNK5boost7numeric5ublas6matrixIdNS1_15basic_row_majorImlEENS1_15unbounded_arrayIdSaIdEEEE4dataEv,comdat
	.align 2
	.weak	_ZNK5boost7numeric5ublas6matrixIdNS1_15basic_row_majorImlEENS1_15unbounded_arrayIdSaIdEEEE4dataEv
	.type	_ZNK5boost7numeric5ublas6matrixIdNS1_15basic_row_majorImlEENS1_15unbounded_arrayIdSaIdEEEE4dataEv, @function
_ZNK5boost7numeric5ublas6matrixIdNS1_15basic_row_majorImlEENS1_15unbounded_arrayIdSaIdEEEE4dataEv:
.LFB8500:
	.cfi_startproc
	endbr64
	pushq	%rbp
	.cfi_def_cfa_offset 16
	.cfi_offset 6, -16
	movq	%rsp, %rbp
	.cfi_def_cfa_register 6
	movq	%rdi, -8(%rbp)
	movq	-8(%rbp), %rax
	addq	$16, %rax
	popq	%rbp
	.cfi_def_cfa 7, 8
	ret
	.cfi_endproc
.LFE8500:
	.size	_ZNK5boost7numeric5ublas6matrixIdNS1_15basic_row_majorImlEENS1_15unbounded_arrayIdSaIdEEEE4dataEv, .-_ZNK5boost7numeric5ublas6matrixIdNS1_15basic_row_majorImlEENS1_15unbounded_arrayIdSaIdEEEE4dataEv
	.section	.rodata
.LC16:
	.string	"Check failed in file "
	.align 8
.LC17:
	.string	"/usr/include/boost/numeric/ublas/functional.hpp"
.LC18:
	.string	" at line "
.LC19:
	.string	":"
.LC20:
	.string	"i < size_i"
.LC21:
	.string	"bad index"
.LC22:
	.string	"j < size_j"
	.align 8
.LC23:
	.string	"i <= ((std::numeric_limits<size_type>::max) () - j) / size_j"
	.section	.text._ZN5boost7numeric5ublas15basic_row_majorImlE7elementEmmmm,"axG",@progbits,_ZN5boost7numeric5ublas15basic_row_majorImlE7elementEmmmm,comdat
	.weak	_ZN5boost7numeric5ublas15basic_row_majorImlE7elementEmmmm
	.type	_ZN5boost7numeric5ublas15basic_row_majorImlE7elementEmmmm, @function
_ZN5boost7numeric5ublas15basic_row_majorImlE7elementEmmmm:
.LFB8501:
	.cfi_startproc
	.cfi_personality 0x9b,DW.ref.__gxx_personality_v0
	.cfi_lsda 0x1b,.LLSDA8501
	endbr64
	pushq	%rbp
	.cfi_def_cfa_offset 16
	.cfi_offset 6, -16
	movq	%rsp, %rbp
	.cfi_def_cfa_register 6
	pushq	%rbx
	subq	$72, %rsp
	.cfi_offset 3, -24
	movq	%rdi, -56(%rbp)
	movq	%rsi, -64(%rbp)
	movq	%rdx, -72(%rbp)
	movq	%rcx, -80(%rbp)
	movq	%fs:40, %rax
	movq	%rax, -24(%rbp)
	xorl	%eax, %eax
	movq	-64(%rbp), %rax
	cmpq	%rax, -56(%rbp)
	jb	.L117
	leaq	.LC16(%rip), %rax
	movq	%rax, %rsi
	leaq	_ZSt4cerr(%rip), %rax
	movq	%rax, %rdi
.LEHB12:
	call	_ZStlsISt11char_traitsIcEERSt13basic_ostreamIcT_ES5_PKc@PLT
	movq	%rax, %rdx
	leaq	.LC17(%rip), %rax
	movq	%rax, %rsi
	movq	%rdx, %rdi
	call	_ZStlsISt11char_traitsIcEERSt13basic_ostreamIcT_ES5_PKc@PLT
	movq	%rax, %rdx
	leaq	.LC18(%rip), %rax
	movq	%rax, %rsi
	movq	%rdx, %rdi
	call	_ZStlsISt11char_traitsIcEERSt13basic_ostreamIcT_ES5_PKc@PLT
	movl	$1418, %esi
	movq	%rax, %rdi
	call	_ZNSolsEi@PLT
	movq	%rax, %rdx
	leaq	.LC19(%rip), %rax
	movq	%rax, %rsi
	movq	%rdx, %rdi
	call	_ZStlsISt11char_traitsIcEERSt13basic_ostreamIcT_ES5_PKc@PLT
	movq	_ZSt4endlIcSt11char_traitsIcEERSt13basic_ostreamIT_T0_ES6_@GOTPCREL(%rip), %rdx
	movq	%rdx, %rsi
	movq	%rax, %rdi
	call	_ZNSolsEPFRSoS_E@PLT
	leaq	.LC20(%rip), %rax
	movq	%rax, %rsi
	leaq	_ZSt4cerr(%rip), %rax
	movq	%rax, %rdi
	call	_ZStlsISt11char_traitsIcEERSt13basic_ostreamIcT_ES5_PKc@PLT
	movq	_ZSt4endlIcSt11char_traitsIcEERSt13basic_ostreamIT_T0_ES6_@GOTPCREL(%rip), %rdx
	movq	%rdx, %rsi
	movq	%rax, %rdi
	call	_ZNSolsEPFRSoS_E@PLT
	leaq	-48(%rbp), %rax
	leaq	.LC21(%rip), %rdx
	movq	%rdx, %rsi
	movq	%rax, %rdi
	call	_ZN5boost7numeric5ublas9bad_indexC1EPKc
.LEHE12:
	leaq	-48(%rbp), %rax
	movq	%rax, %rdi
.LEHB13:
	call	_ZN5boost7numeric5ublas9bad_index5raiseEv
.LEHE13:
	leaq	-48(%rbp), %rax
	movq	%rax, %rdi
	call	_ZN5boost7numeric5ublas9bad_indexD1Ev
.L117:
	movq	-72(%rbp), %rax
	cmpq	-80(%rbp), %rax
	jb	.L118
	leaq	.LC16(%rip), %rax
	movq	%rax, %rsi
	leaq	_ZSt4cerr(%rip), %rax
	movq	%rax, %rdi
.LEHB14:
	call	_ZStlsISt11char_traitsIcEERSt13basic_ostreamIcT_ES5_PKc@PLT
	movq	%rax, %rdx
	leaq	.LC17(%rip), %rax
	movq	%rax, %rsi
	movq	%rdx, %rdi
	call	_ZStlsISt11char_traitsIcEERSt13basic_ostreamIcT_ES5_PKc@PLT
	movq	%rax, %rdx
	leaq	.LC18(%rip), %rax
	movq	%rax, %rsi
	movq	%rdx, %rdi
	call	_ZStlsISt11char_traitsIcEERSt13basic_ostreamIcT_ES5_PKc@PLT
	movl	$1419, %esi
	movq	%rax, %rdi
	call	_ZNSolsEi@PLT
	movq	%rax, %rdx
	leaq	.LC19(%rip), %rax
	movq	%rax, %rsi
	movq	%rdx, %rdi
	call	_ZStlsISt11char_traitsIcEERSt13basic_ostreamIcT_ES5_PKc@PLT
	movq	_ZSt4endlIcSt11char_traitsIcEERSt13basic_ostreamIT_T0_ES6_@GOTPCREL(%rip), %rdx
	movq	%rdx, %rsi
	movq	%rax, %rdi
	call	_ZNSolsEPFRSoS_E@PLT
	leaq	.LC22(%rip), %rax
	movq	%rax, %rsi
	leaq	_ZSt4cerr(%rip), %rax
	movq	%rax, %rdi
	call	_ZStlsISt11char_traitsIcEERSt13basic_ostreamIcT_ES5_PKc@PLT
	movq	_ZSt4endlIcSt11char_traitsIcEERSt13basic_ostreamIT_T0_ES6_@GOTPCREL(%rip), %rdx
	movq	%rdx, %rsi
	movq	%rax, %rdi
	call	_ZNSolsEPFRSoS_E@PLT
	leaq	-48(%rbp), %rax
	leaq	.LC21(%rip), %rdx
	movq	%rdx, %rsi
	movq	%rax, %rdi
	call	_ZN5boost7numeric5ublas9bad_indexC1EPKc
.LEHE14:
	leaq	-48(%rbp), %rax
	movq	%rax, %rdi
.LEHB15:
	call	_ZN5boost7numeric5ublas9bad_index5raiseEv
.LEHE15:
	leaq	-48(%rbp), %rax
	movq	%rax, %rdi
	call	_ZN5boost7numeric5ublas9bad_indexD1Ev
.L118:
	leaq	-64(%rbp), %rax
	movq	%rax, %rdi
	call	_ZN5boost7numeric5ublas6detail30ignore_unused_variable_warningImEEvRKT_
	call	_ZNSt14numeric_limitsImE3maxEv
	subq	-72(%rbp), %rax
	movl	$0, %edx
	divq	-80(%rbp)
	cmpq	%rax, -56(%rbp)
	seta	%al
	testb	%al, %al
	je	.L119
	leaq	.LC16(%rip), %rax
	movq	%rax, %rsi
	leaq	_ZSt4cerr(%rip), %rax
	movq	%rax, %rdi
.LEHB16:
	call	_ZStlsISt11char_traitsIcEERSt13basic_ostreamIcT_ES5_PKc@PLT
	movq	%rax, %rdx
	leaq	.LC17(%rip), %rax
	movq	%rax, %rsi
	movq	%rdx, %rdi
	call	_ZStlsISt11char_traitsIcEERSt13basic_ostreamIcT_ES5_PKc@PLT
	movq	%rax, %rdx
	leaq	.LC18(%rip), %rax
	movq	%rax, %rsi
	movq	%rdx, %rdi
	call	_ZStlsISt11char_traitsIcEERSt13basic_ostreamIcT_ES5_PKc@PLT
	movl	$1422, %esi
	movq	%rax, %rdi
	call	_ZNSolsEi@PLT
	movq	%rax, %rdx
	leaq	.LC19(%rip), %rax
	movq	%rax, %rsi
	movq	%rdx, %rdi
	call	_ZStlsISt11char_traitsIcEERSt13basic_ostreamIcT_ES5_PKc@PLT
	movq	_ZSt4endlIcSt11char_traitsIcEERSt13basic_ostreamIT_T0_ES6_@GOTPCREL(%rip), %rdx
	movq	%rdx, %rsi
	movq	%rax, %rdi
	call	_ZNSolsEPFRSoS_E@PLT
	leaq	.LC23(%rip), %rax
	movq	%rax, %rsi
	leaq	_ZSt4cerr(%rip), %rax
	movq	%rax, %rdi
	call	_ZStlsISt11char_traitsIcEERSt13basic_ostreamIcT_ES5_PKc@PLT
	movq	_ZSt4endlIcSt11char_traitsIcEERSt13basic_ostreamIT_T0_ES6_@GOTPCREL(%rip), %rdx
	movq	%rdx, %rsi
	movq	%rax, %rdi
	call	_ZNSolsEPFRSoS_E@PLT
	leaq	-48(%rbp), %rax
	leaq	.LC21(%rip), %rdx
	movq	%rdx, %rsi
	movq	%rax, %rdi
	call	_ZN5boost7numeric5ublas9bad_indexC1EPKc
.LEHE16:
	leaq	-48(%rbp), %rax
	movq	%rax, %rdi
.LEHB17:
	call	_ZN5boost7numeric5ublas9bad_index5raiseEv
.LEHE17:
	leaq	-48(%rbp), %rax
	movq	%rax, %rdi
	call	_ZN5boost7numeric5ublas9bad_indexD1Ev
.L119:
	movq	-56(%rbp), %rax
	imulq	-80(%rbp), %rax
	movq	%rax, %rdx
	movq	-72(%rbp), %rax
	addq	%rdx, %rax
	movq	-24(%rbp), %rdx
	subq	%fs:40, %rdx
	je	.L124
	jmp	.L128
.L125:
	endbr64
	movq	%rax, %rbx
	leaq	-48(%rbp), %rax
	movq	%rax, %rdi
	call	_ZN5boost7numeric5ublas9bad_indexD1Ev
	movq	%rbx, %rax
	movq	%rax, %rdi
.LEHB18:
	call	_Unwind_Resume@PLT
.L126:
	endbr64
	movq	%rax, %rbx
	leaq	-48(%rbp), %rax
	movq	%rax, %rdi
	call	_ZN5boost7numeric5ublas9bad_indexD1Ev
	movq	%rbx, %rax
	movq	%rax, %rdi
	call	_Unwind_Resume@PLT
.L127:
	endbr64
	movq	%rax, %rbx
	leaq	-48(%rbp), %rax
	movq	%rax, %rdi
	call	_ZN5boost7numeric5ublas9bad_indexD1Ev
	movq	%rbx, %rax
	movq	%rax, %rdi
	call	_Unwind_Resume@PLT
.LEHE18:
.L128:
	call	__stack_chk_fail@PLT
.L124:
	movq	-8(%rbp), %rbx
	leave
	.cfi_def_cfa 7, 8
	ret
	.cfi_endproc
.LFE8501:
	.section	.gcc_except_table
.LLSDA8501:
	.byte	0xff
	.byte	0xff
	.byte	0x1
	.uleb128 .LLSDACSE8501-.LLSDACSB8501
.LLSDACSB8501:
	.uleb128 .LEHB12-.LFB8501
	.uleb128 .LEHE12-.LEHB12
	.uleb128 0
	.uleb128 0
	.uleb128 .LEHB13-.LFB8501
	.uleb128 .LEHE13-.LEHB13
	.uleb128 .L125-.LFB8501
	.uleb128 0
	.uleb128 .LEHB14-.LFB8501
	.uleb128 .LEHE14-.LEHB14
	.uleb128 0
	.uleb128 0
	.uleb128 .LEHB15-.LFB8501
	.uleb128 .LEHE15-.LEHB15
	.uleb128 .L126-.LFB8501
	.uleb128 0
	.uleb128 .LEHB16-.LFB8501
	.uleb128 .LEHE16-.LEHB16
	.uleb128 0
	.uleb128 0
	.uleb128 .LEHB17-.LFB8501
	.uleb128 .LEHE17-.LEHB17
	.uleb128 .L127-.LFB8501
	.uleb128 0
	.uleb128 .LEHB18-.LFB8501
	.uleb128 .LEHE18-.LEHB18
	.uleb128 0
	.uleb128 0
.LLSDACSE8501:
	.section	.text._ZN5boost7numeric5ublas15basic_row_majorImlE7elementEmmmm,"axG",@progbits,_ZN5boost7numeric5ublas15basic_row_majorImlE7elementEmmmm,comdat
	.size	_ZN5boost7numeric5ublas15basic_row_majorImlE7elementEmmmm, .-_ZN5boost7numeric5ublas15basic_row_majorImlE7elementEmmmm
	.section	.rodata
	.align 8
.LC24:
	.string	"/usr/include/boost/numeric/ublas/storage.hpp"
.LC25:
	.string	"i < size_"
	.section	.text._ZNK5boost7numeric5ublas15unbounded_arrayIdSaIdEEixEm,"axG",@progbits,_ZNK5boost7numeric5ublas15unbounded_arrayIdSaIdEEixEm,comdat
	.align 2
	.weak	_ZNK5boost7numeric5ublas15unbounded_arrayIdSaIdEEixEm
	.type	_ZNK5boost7numeric5ublas15unbounded_arrayIdSaIdEEixEm, @function
_ZNK5boost7numeric5ublas15unbounded_arrayIdSaIdEEixEm:
.LFB8502:
	.cfi_startproc
	.cfi_personality 0x9b,DW.ref.__gxx_personality_v0
	.cfi_lsda 0x1b,.LLSDA8502
	endbr64
	pushq	%rbp
	.cfi_def_cfa_offset 16
	.cfi_offset 6, -16
	movq	%rsp, %rbp
	.cfi_def_cfa_register 6
	pushq	%rbx
	subq	$56, %rsp
	.cfi_offset 3, -24
	movq	%rdi, -56(%rbp)
	movq	%rsi, -64(%rbp)
	movq	%fs:40, %rax
	movq	%rax, -24(%rbp)
	xorl	%eax, %eax
	movq	-56(%rbp), %rax
	movq	8(%rax), %rax
	cmpq	%rax, -64(%rbp)
	jb	.L130
	leaq	.LC16(%rip), %rax
	movq	%rax, %rsi
	leaq	_ZSt4cerr(%rip), %rax
	movq	%rax, %rdi
.LEHB19:
	call	_ZStlsISt11char_traitsIcEERSt13basic_ostreamIcT_ES5_PKc@PLT
	movq	%rax, %rdx
	leaq	.LC24(%rip), %rax
	movq	%rax, %rsi
	movq	%rdx, %rdi
	call	_ZStlsISt11char_traitsIcEERSt13basic_ostreamIcT_ES5_PKc@PLT
	movq	%rax, %rdx
	leaq	.LC18(%rip), %rax
	movq	%rax, %rsi
	movq	%rdx, %rdi
	call	_ZStlsISt11char_traitsIcEERSt13basic_ostreamIcT_ES5_PKc@PLT
	movl	$232, %esi
	movq	%rax, %rdi
	call	_ZNSolsEi@PLT
	movq	%rax, %rdx
	leaq	.LC19(%rip), %rax
	movq	%rax, %rsi
	movq	%rdx, %rdi
	call	_ZStlsISt11char_traitsIcEERSt13basic_ostreamIcT_ES5_PKc@PLT
	movq	_ZSt4endlIcSt11char_traitsIcEERSt13basic_ostreamIT_T0_ES6_@GOTPCREL(%rip), %rdx
	movq	%rdx, %rsi
	movq	%rax, %rdi
	call	_ZNSolsEPFRSoS_E@PLT
	leaq	.LC25(%rip), %rax
	movq	%rax, %rsi
	leaq	_ZSt4cerr(%rip), %rax
	movq	%rax, %rdi
	call	_ZStlsISt11char_traitsIcEERSt13basic_ostreamIcT_ES5_PKc@PLT
	movq	_ZSt4endlIcSt11char_traitsIcEERSt13basic_ostreamIT_T0_ES6_@GOTPCREL(%rip), %rdx
	movq	%rdx, %rsi
	movq	%rax, %rdi
	call	_ZNSolsEPFRSoS_E@PLT
	leaq	-48(%rbp), %rax
	leaq	.LC21(%rip), %rdx
	movq	%rdx, %rsi
	movq	%rax, %rdi
	call	_ZN5boost7numeric5ublas9bad_indexC1EPKc
.LEHE19:
	leaq	-48(%rbp), %rax
	movq	%rax, %rdi
.LEHB20:
	call	_ZN5boost7numeric5ublas9bad_index5raiseEv
.LEHE20:
	leaq	-48(%rbp), %rax
	movq	%rax, %rdi
	call	_ZN5boost7numeric5ublas9bad_indexD1Ev
.L130:
	movq	-56(%rbp), %rax
	movq	16(%rax), %rdx
	movq	-64(%rbp), %rax
	salq	$3, %rax
	addq	%rdx, %rax
	movq	-24(%rbp), %rdx
	subq	%fs:40, %rdx
	je	.L133
	jmp	.L135
.L134:
	endbr64
	movq	%rax, %rbx
	leaq	-48(%rbp), %rax
	movq	%rax, %rdi
	call	_ZN5boost7numeric5ublas9bad_indexD1Ev
	movq	%rbx, %rax
	movq	%rax, %rdi
.LEHB21:
	call	_Unwind_Resume@PLT
.LEHE21:
.L135:
	call	__stack_chk_fail@PLT
.L133:
	movq	-8(%rbp), %rbx
	leave
	.cfi_def_cfa 7, 8
	ret
	.cfi_endproc
.LFE8502:
	.section	.gcc_except_table
.LLSDA8502:
	.byte	0xff
	.byte	0xff
	.byte	0x1
	.uleb128 .LLSDACSE8502-.LLSDACSB8502
.LLSDACSB8502:
	.uleb128 .LEHB19-.LFB8502
	.uleb128 .LEHE19-.LEHB19
	.uleb128 0
	.uleb128 0
	.uleb128 .LEHB20-.LFB8502
	.uleb128 .LEHE20-.LEHB20
	.uleb128 .L134-.LFB8502
	.uleb128 0
	.uleb128 .LEHB21-.LFB8502
	.uleb128 .LEHE21-.LEHB21
	.uleb128 0
	.uleb128 0
.LLSDACSE8502:
	.section	.text._ZNK5boost7numeric5ublas15unbounded_arrayIdSaIdEEixEm,"axG",@progbits,_ZNK5boost7numeric5ublas15unbounded_arrayIdSaIdEEixEm,comdat
	.size	_ZNK5boost7numeric5ublas15unbounded_arrayIdSaIdEEixEm, .-_ZNK5boost7numeric5ublas15unbounded_arrayIdSaIdEEixEm
	.section	.rodata
	.align 8
.LC26:
	.string	"size_j == 0 || size_i <= (std::numeric_limits<size_type>::max) () / size_j"
.LC27:
	.string	"bad size"
	.section	.text._ZN5boost7numeric5ublas15basic_row_majorImlE12storage_sizeEmm,"axG",@progbits,_ZN5boost7numeric5ublas15basic_row_majorImlE12storage_sizeEmm,comdat
	.weak	_ZN5boost7numeric5ublas15basic_row_majorImlE12storage_sizeEmm
	.type	_ZN5boost7numeric5ublas15basic_row_majorImlE12storage_sizeEmm, @function
_ZN5boost7numeric5ublas15basic_row_majorImlE12storage_sizeEmm:
.LFB8505:
	.cfi_startproc
	.cfi_personality 0x9b,DW.ref.__gxx_personality_v0
	.cfi_lsda 0x1b,.LLSDA8505
	endbr64
	pushq	%rbp
	.cfi_def_cfa_offset 16
	.cfi_offset 6, -16
	movq	%rsp, %rbp
	.cfi_def_cfa_register 6
	pushq	%rbx
	subq	$56, %rsp
	.cfi_offset 3, -24
	movq	%rdi, -56(%rbp)
	movq	%rsi, -64(%rbp)
	movq	%fs:40, %rax
	movq	%rax, -24(%rbp)
	xorl	%eax, %eax
	cmpq	$0, -64(%rbp)
	je	.L137
	call	_ZNSt14numeric_limitsImE3maxEv
	movl	$0, %edx
	divq	-64(%rbp)
	cmpq	%rax, -56(%rbp)
	jbe	.L137
	movl	$1, %eax
	jmp	.L138
.L137:
	movl	$0, %eax
.L138:
	testb	%al, %al
	je	.L139
	leaq	.LC16(%rip), %rax
	movq	%rax, %rsi
	leaq	_ZSt4cerr(%rip), %rax
	movq	%rax, %rdi
.LEHB22:
	call	_ZStlsISt11char_traitsIcEERSt13basic_ostreamIcT_ES5_PKc@PLT
	movq	%rax, %rdx
	leaq	.LC17(%rip), %rax
	movq	%rax, %rsi
	movq	%rdx, %rdi
	call	_ZStlsISt11char_traitsIcEERSt13basic_ostreamIcT_ES5_PKc@PLT
	movq	%rax, %rdx
	leaq	.LC18(%rip), %rax
	movq	%rax, %rsi
	movq	%rdx, %rdi
	call	_ZStlsISt11char_traitsIcEERSt13basic_ostreamIcT_ES5_PKc@PLT
	movl	$1410, %esi
	movq	%rax, %rdi
	call	_ZNSolsEi@PLT
	movq	%rax, %rdx
	leaq	.LC19(%rip), %rax
	movq	%rax, %rsi
	movq	%rdx, %rdi
	call	_ZStlsISt11char_traitsIcEERSt13basic_ostreamIcT_ES5_PKc@PLT
	movq	_ZSt4endlIcSt11char_traitsIcEERSt13basic_ostreamIT_T0_ES6_@GOTPCREL(%rip), %rdx
	movq	%rdx, %rsi
	movq	%rax, %rdi
	call	_ZNSolsEPFRSoS_E@PLT
	leaq	.LC26(%rip), %rax
	movq	%rax, %rsi
	leaq	_ZSt4cerr(%rip), %rax
	movq	%rax, %rdi
	call	_ZStlsISt11char_traitsIcEERSt13basic_ostreamIcT_ES5_PKc@PLT
	movq	_ZSt4endlIcSt11char_traitsIcEERSt13basic_ostreamIT_T0_ES6_@GOTPCREL(%rip), %rdx
	movq	%rdx, %rsi
	movq	%rax, %rdi
	call	_ZNSolsEPFRSoS_E@PLT
	leaq	-48(%rbp), %rax
	leaq	.LC27(%rip), %rdx
	movq	%rdx, %rsi
	movq	%rax, %rdi
	call	_ZN5boost7numeric5ublas8bad_sizeC1EPKc
.LEHE22:
	leaq	-48(%rbp), %rax
	movq	%rax, %rdi
.LEHB23:
	call	_ZN5boost7numeric5ublas8bad_size5raiseEv
.LEHE23:
	leaq	-48(%rbp), %rax
	movq	%rax, %rdi
	call	_ZN5boost7numeric5ublas8bad_sizeD1Ev
.L139:
	movq	-56(%rbp), %rax
	imulq	-64(%rbp), %rax
	movq	-24(%rbp), %rdx
	subq	%fs:40, %rdx
	je	.L142
	jmp	.L144
.L143:
	endbr64
	movq	%rax, %rbx
	leaq	-48(%rbp), %rax
	movq	%rax, %rdi
	call	_ZN5boost7numeric5ublas8bad_sizeD1Ev
	movq	%rbx, %rax
	movq	%rax, %rdi
.LEHB24:
	call	_Unwind_Resume@PLT
.LEHE24:
.L144:
	call	__stack_chk_fail@PLT
.L142:
	movq	-8(%rbp), %rbx
	leave
	.cfi_def_cfa 7, 8
	ret
	.cfi_endproc
.LFE8505:
	.section	.gcc_except_table
.LLSDA8505:
	.byte	0xff
	.byte	0xff
	.byte	0x1
	.uleb128 .LLSDACSE8505-.LLSDACSB8505
.LLSDACSB8505:
	.uleb128 .LEHB22-.LFB8505
	.uleb128 .LEHE22-.LEHB22
	.uleb128 0
	.uleb128 0
	.uleb128 .LEHB23-.LFB8505
	.uleb128 .LEHE23-.LEHB23
	.uleb128 .L143-.LFB8505
	.uleb128 0
	.uleb128 .LEHB24-.LFB8505
	.uleb128 .LEHE24-.LEHB24
	.uleb128 0
	.uleb128 0
.LLSDACSE8505:
	.section	.text._ZN5boost7numeric5ublas15basic_row_majorImlE12storage_sizeEmm,"axG",@progbits,_ZN5boost7numeric5ublas15basic_row_majorImlE12storage_sizeEmm,comdat
	.size	_ZN5boost7numeric5ublas15basic_row_majorImlE12storage_sizeEmm, .-_ZN5boost7numeric5ublas15basic_row_majorImlE12storage_sizeEmm
	.section	.text._ZN5boost7numeric5ublas16ublas_expressionINS1_6matrixIdNS1_15basic_row_majorImlEENS1_15unbounded_arrayIdSaIdEEEEEEC2Ev,"axG",@progbits,_ZN5boost7numeric5ublas16ublas_expressionINS1_6matrixIdNS1_15basic_row_majorImlEENS1_15unbounded_arrayIdSaIdEEEEEEC5Ev,comdat
	.align 2
	.weak	_ZN5boost7numeric5ublas16ublas_expressionINS1_6matrixIdNS1_15basic_row_majorImlEENS1_15unbounded_arrayIdSaIdEEEEEEC2Ev
	.type	_ZN5boost7numeric5ublas16ublas_expressionINS1_6matrixIdNS1_15basic_row_majorImlEENS1_15unbounded_arrayIdSaIdEEEEEEC2Ev, @function
_ZN5boost7numeric5ublas16ublas_expressionINS1_6matrixIdNS1_15basic_row_majorImlEENS1_15unbounded_arrayIdSaIdEEEEEEC2Ev:
.LFB8507:
	.cfi_startproc
	endbr64
	pushq	%rbp
	.cfi_def_cfa_offset 16
	.cfi_offset 6, -16
	movq	%rsp, %rbp
	.cfi_def_cfa_register 6
	movq	%rdi, -8(%rbp)
	nop
	popq	%rbp
	.cfi_def_cfa 7, 8
	ret
	.cfi_endproc
.LFE8507:
	.size	_ZN5boost7numeric5ublas16ublas_expressionINS1_6matrixIdNS1_15basic_row_majorImlEENS1_15unbounded_arrayIdSaIdEEEEEEC2Ev, .-_ZN5boost7numeric5ublas16ublas_expressionINS1_6matrixIdNS1_15basic_row_majorImlEENS1_15unbounded_arrayIdSaIdEEEEEEC2Ev
	.weak	_ZN5boost7numeric5ublas16ublas_expressionINS1_6matrixIdNS1_15basic_row_majorImlEENS1_15unbounded_arrayIdSaIdEEEEEEC1Ev
	.set	_ZN5boost7numeric5ublas16ublas_expressionINS1_6matrixIdNS1_15basic_row_majorImlEENS1_15unbounded_arrayIdSaIdEEEEEEC1Ev,_ZN5boost7numeric5ublas16ublas_expressionINS1_6matrixIdNS1_15basic_row_majorImlEENS1_15unbounded_arrayIdSaIdEEEEEEC2Ev
	.section	.text._ZNSaIdEC2Ev,"axG",@progbits,_ZNSaIdEC5Ev,comdat
	.align 2
	.weak	_ZNSaIdEC2Ev
	.type	_ZNSaIdEC2Ev, @function
_ZNSaIdEC2Ev:
.LFB8510:
	.cfi_startproc
	endbr64
	pushq	%rbp
	.cfi_def_cfa_offset 16
	.cfi_offset 6, -16
	movq	%rsp, %rbp
	.cfi_def_cfa_register 6
	subq	$16, %rsp
	movq	%rdi, -8(%rbp)
	movq	-8(%rbp), %rax
	movq	%rax, %rdi
	call	_ZN9__gnu_cxx13new_allocatorIdEC2Ev
	nop
	leave
	.cfi_def_cfa 7, 8
	ret
	.cfi_endproc
.LFE8510:
	.size	_ZNSaIdEC2Ev, .-_ZNSaIdEC2Ev
	.weak	_ZNSaIdEC1Ev
	.set	_ZNSaIdEC1Ev,_ZNSaIdEC2Ev
	.section	.text._ZNSaIdED2Ev,"axG",@progbits,_ZNSaIdED5Ev,comdat
	.align 2
	.weak	_ZNSaIdED2Ev
	.type	_ZNSaIdED2Ev, @function
_ZNSaIdED2Ev:
.LFB8513:
	.cfi_startproc
	endbr64
	pushq	%rbp
	.cfi_def_cfa_offset 16
	.cfi_offset 6, -16
	movq	%rsp, %rbp
	.cfi_def_cfa_register 6
	subq	$16, %rsp
	movq	%rdi, -8(%rbp)
	movq	-8(%rbp), %rax
	movq	%rax, %rdi
	call	_ZN9__gnu_cxx13new_allocatorIdED2Ev
	nop
	leave
	.cfi_def_cfa 7, 8
	ret
	.cfi_endproc
.LFE8513:
	.size	_ZNSaIdED2Ev, .-_ZNSaIdED2Ev
	.weak	_ZNSaIdED1Ev
	.set	_ZNSaIdED1Ev,_ZNSaIdED2Ev
	.section	.text._ZN5boost7numeric5ublas13storage_arrayINS1_15unbounded_arrayIdSaIdEEEEC2Ev,"axG",@progbits,_ZN5boost7numeric5ublas13storage_arrayINS1_15unbounded_arrayIdSaIdEEEEC5Ev,comdat
	.align 2
	.weak	_ZN5boost7numeric5ublas13storage_arrayINS1_15unbounded_arrayIdSaIdEEEEC2Ev
	.type	_ZN5boost7numeric5ublas13storage_arrayINS1_15unbounded_arrayIdSaIdEEEEC2Ev, @function
_ZN5boost7numeric5ublas13storage_arrayINS1_15unbounded_arrayIdSaIdEEEEC2Ev:
.LFB8517:
	.cfi_startproc
	endbr64
	pushq	%rbp
	.cfi_def_cfa_offset 16
	.cfi_offset 6, -16
	movq	%rsp, %rbp
	.cfi_def_cfa_register 6
	subq	$16, %rsp
	movq	%rdi, -8(%rbp)
	movq	-8(%rbp), %rax
	movq	%rax, %rdi
	call	_ZN5boost7numeric5ublas14nonassignable_13nonassignableC2Ev
	nop
	leave
	.cfi_def_cfa 7, 8
	ret
	.cfi_endproc
.LFE8517:
	.size	_ZN5boost7numeric5ublas13storage_arrayINS1_15unbounded_arrayIdSaIdEEEEC2Ev, .-_ZN5boost7numeric5ublas13storage_arrayINS1_15unbounded_arrayIdSaIdEEEEC2Ev
	.weak	_ZN5boost7numeric5ublas13storage_arrayINS1_15unbounded_arrayIdSaIdEEEEC1Ev
	.set	_ZN5boost7numeric5ublas13storage_arrayINS1_15unbounded_arrayIdSaIdEEEEC1Ev,_ZN5boost7numeric5ublas13storage_arrayINS1_15unbounded_arrayIdSaIdEEEEC2Ev
	.section	.text._ZN5boost7numeric5ublas15unbounded_arrayIdSaIdEEC2EmRKS3_,"axG",@progbits,_ZN5boost7numeric5ublas15unbounded_arrayIdSaIdEEC5EmRKS3_,comdat
	.align 2
	.weak	_ZN5boost7numeric5ublas15unbounded_arrayIdSaIdEEC2EmRKS3_
	.type	_ZN5boost7numeric5ublas15unbounded_arrayIdSaIdEEC2EmRKS3_, @function
_ZN5boost7numeric5ublas15unbounded_arrayIdSaIdEEC2EmRKS3_:
.LFB8520:
	.cfi_startproc
	.cfi_personality 0x9b,DW.ref.__gxx_personality_v0
	.cfi_lsda 0x1b,.LLSDA8520
	endbr64
	pushq	%rbp
	.cfi_def_cfa_offset 16
	.cfi_offset 6, -16
	movq	%rsp, %rbp
	.cfi_def_cfa_register 6
	pushq	%rbx
	subq	$56, %rsp
	.cfi_offset 3, -24
	movq	%rdi, -40(%rbp)
	movq	%rsi, -48(%rbp)
	movq	%rdx, -56(%rbp)
	movq	%fs:40, %rax
	movq	%rax, -24(%rbp)
	xorl	%eax, %eax
	movq	-40(%rbp), %rax
	movq	%rax, %rdi
	call	_ZN5boost7numeric5ublas13storage_arrayINS1_15unbounded_arrayIdSaIdEEEEC2Ev
	movq	-40(%rbp), %rax
	movq	-56(%rbp), %rdx
	movq	%rdx, %rsi
	movq	%rax, %rdi
	call	_ZNSaIdEC1ERKS_
	movq	-40(%rbp), %rax
	movq	-48(%rbp), %rdx
	movq	%rdx, 8(%rax)
	movq	-40(%rbp), %rax
	movq	8(%rax), %rax
	testq	%rax, %rax
	je	.L150
	movq	-40(%rbp), %rax
	movq	-40(%rbp), %rdx
	movq	8(%rdx), %rcx
	movl	$0, %edx
	movq	%rcx, %rsi
	movq	%rax, %rdi
.LEHB25:
	call	_ZN9__gnu_cxx13new_allocatorIdE8allocateEmPKv
.LEHE25:
	movq	-40(%rbp), %rdx
	movq	%rax, 16(%rdx)
	jmp	.L149
.L150:
	movq	-40(%rbp), %rax
	movq	$0, 16(%rax)
	jmp	.L149
.L154:
	endbr64
	movq	%rax, %rbx
	movq	-40(%rbp), %rax
	movq	%rax, %rdi
	call	_ZNSaIdED1Ev
	movq	-40(%rbp), %rax
	movq	%rax, %rdi
	call	_ZN5boost7numeric5ublas13storage_arrayINS1_15unbounded_arrayIdSaIdEEEED2Ev
	movq	%rbx, %rax
	movq	%rax, %rdi
.LEHB26:
	call	_Unwind_Resume@PLT
.LEHE26:
.L149:
	movq	-24(%rbp), %rax
	subq	%fs:40, %rax
	je	.L153
	call	__stack_chk_fail@PLT
.L153:
	movq	-8(%rbp), %rbx
	leave
	.cfi_def_cfa 7, 8
	ret
	.cfi_endproc
.LFE8520:
	.section	.gcc_except_table
.LLSDA8520:
	.byte	0xff
	.byte	0xff
	.byte	0x1
	.uleb128 .LLSDACSE8520-.LLSDACSB8520
.LLSDACSB8520:
	.uleb128 .LEHB25-.LFB8520
	.uleb128 .LEHE25-.LEHB25
	.uleb128 .L154-.LFB8520
	.uleb128 0
	.uleb128 .LEHB26-.LFB8520
	.uleb128 .LEHE26-.LEHB26
	.uleb128 0
	.uleb128 0
.LLSDACSE8520:
	.section	.text._ZN5boost7numeric5ublas15unbounded_arrayIdSaIdEEC2EmRKS3_,"axG",@progbits,_ZN5boost7numeric5ublas15unbounded_arrayIdSaIdEEC5EmRKS3_,comdat
	.size	_ZN5boost7numeric5ublas15unbounded_arrayIdSaIdEEC2EmRKS3_, .-_ZN5boost7numeric5ublas15unbounded_arrayIdSaIdEEC2EmRKS3_
	.weak	_ZN5boost7numeric5ublas15unbounded_arrayIdSaIdEEC1EmRKS3_
	.set	_ZN5boost7numeric5ublas15unbounded_arrayIdSaIdEEC1EmRKS3_,_ZN5boost7numeric5ublas15unbounded_arrayIdSaIdEEC2EmRKS3_
	.section	.text._ZN9__gnu_cxx13new_allocatorIdE10deallocateEPdm,"axG",@progbits,_ZN9__gnu_cxx13new_allocatorIdE10deallocateEPdm,comdat
	.align 2
	.weak	_ZN9__gnu_cxx13new_allocatorIdE10deallocateEPdm
	.type	_ZN9__gnu_cxx13new_allocatorIdE10deallocateEPdm, @function
_ZN9__gnu_cxx13new_allocatorIdE10deallocateEPdm:
.LFB8525:
	.cfi_startproc
	endbr64
	pushq	%rbp
	.cfi_def_cfa_offset 16
	.cfi_offset 6, -16
	movq	%rsp, %rbp
	.cfi_def_cfa_register 6
	subq	$32, %rsp
	movq	%rdi, -8(%rbp)
	movq	%rsi, -16(%rbp)
	movq	%rdx, -24(%rbp)
	movq	-24(%rbp), %rax
	leaq	0(,%rax,8), %rdx
	movq	-16(%rbp), %rax
	movq	%rdx, %rsi
	movq	%rax, %rdi
	call	_ZdlPvm@PLT
	leave
	.cfi_def_cfa 7, 8
	ret
	.cfi_endproc
.LFE8525:
	.size	_ZN9__gnu_cxx13new_allocatorIdE10deallocateEPdm, .-_ZN9__gnu_cxx13new_allocatorIdE10deallocateEPdm
	.section	.text._ZN5boost7numeric5ublas6matrixIdNS1_15basic_row_majorImlEENS1_15unbounded_arrayIdSaIdEEEE10at_elementEmm,"axG",@progbits,_ZN5boost7numeric5ublas6matrixIdNS1_15basic_row_majorImlEENS1_15unbounded_arrayIdSaIdEEEE10at_elementEmm,comdat
	.align 2
	.weak	_ZN5boost7numeric5ublas6matrixIdNS1_15basic_row_majorImlEENS1_15unbounded_arrayIdSaIdEEEE10at_elementEmm
	.type	_ZN5boost7numeric5ublas6matrixIdNS1_15basic_row_majorImlEENS1_15unbounded_arrayIdSaIdEEEE10at_elementEmm, @function
_ZN5boost7numeric5ublas6matrixIdNS1_15basic_row_majorImlEENS1_15unbounded_arrayIdSaIdEEEE10at_elementEmm:
.LFB8526:
	.cfi_startproc
	endbr64
	pushq	%rbp
	.cfi_def_cfa_offset 16
	.cfi_offset 6, -16
	movq	%rsp, %rbp
	.cfi_def_cfa_register 6
	pushq	%rbx
	subq	$40, %rsp
	.cfi_offset 3, -24
	movq	%rdi, -24(%rbp)
	movq	%rsi, -32(%rbp)
	movq	%rdx, -40(%rbp)
	movq	-24(%rbp), %rax
	movq	%rax, %rdi
	call	_ZN5boost7numeric5ublas6matrixIdNS1_15basic_row_majorImlEENS1_15unbounded_arrayIdSaIdEEEE4dataEv
	movq	%rax, %rbx
	movq	-24(%rbp), %rax
	movq	8(%rax), %rcx
	movq	-24(%rbp), %rax
	movq	(%rax), %rsi
	movq	-40(%rbp), %rdx
	movq	-32(%rbp), %rax
	movq	%rax, %rdi
	call	_ZN5boost7numeric5ublas15basic_row_majorImlE7elementEmmmm
	movq	%rax, %rsi
	movq	%rbx, %rdi
	call	_ZN5boost7numeric5ublas15unbounded_arrayIdSaIdEEixEm
	movq	-8(%rbp), %rbx
	leave
	.cfi_def_cfa 7, 8
	ret
	.cfi_endproc
.LFE8526:
	.size	_ZN5boost7numeric5ublas6matrixIdNS1_15basic_row_majorImlEENS1_15unbounded_arrayIdSaIdEEEE10at_elementEmm, .-_ZN5boost7numeric5ublas6matrixIdNS1_15basic_row_majorImlEENS1_15unbounded_arrayIdSaIdEEEE10at_elementEmm
	.section	.text._ZN5boost7numeric5ublas4prodINS1_6matrixIdNS1_15basic_row_majorImlEENS1_15unbounded_arrayIdSaIdEEEEES9_EENS1_27matrix_matrix_binary_traitsINT_10value_typeESB_NT0_10value_typeESD_E11result_typeERKNS1_17matrix_expressionISB_EERKNSH_ISD_EENS1_19unknown_storage_tagENS1_23unknown_orientation_tagE,"axG",@progbits,_ZN5boost7numeric5ublas4prodINS1_6matrixIdNS1_15basic_row_majorImlEENS1_15unbounded_arrayIdSaIdEEEEES9_EENS1_27matrix_matrix_binary_traitsINT_10value_typeESB_NT0_10value_typeESD_E11result_typeERKNS1_17matrix_expressionISB_EERKNSH_ISD_EENS1_19unknown_storage_tagENS1_23unknown_orientation_tagE,comdat
	.weak	_ZN5boost7numeric5ublas4prodINS1_6matrixIdNS1_15basic_row_majorImlEENS1_15unbounded_arrayIdSaIdEEEEES9_EENS1_27matrix_matrix_binary_traitsINT_10value_typeESB_NT0_10value_typeESD_E11result_typeERKNS1_17matrix_expressionISB_EERKNSH_ISD_EENS1_19unknown_storage_tagENS1_23unknown_orientation_tagE
	.type	_ZN5boost7numeric5ublas4prodINS1_6matrixIdNS1_15basic_row_majorImlEENS1_15unbounded_arrayIdSaIdEEEEES9_EENS1_27matrix_matrix_binary_traitsINT_10value_typeESB_NT0_10value_typeESD_E11result_typeERKNS1_17matrix_expressionISB_EERKNSH_ISD_EENS1_19unknown_storage_tagENS1_23unknown_orientation_tagE, @function
_ZN5boost7numeric5ublas4prodINS1_6matrixIdNS1_15basic_row_majorImlEENS1_15unbounded_arrayIdSaIdEEEEES9_EENS1_27matrix_matrix_binary_traitsINT_10value_typeESB_NT0_10value_typeESD_E11result_typeERKNS1_17matrix_expressionISB_EERKNSH_ISD_EENS1_19unknown_storage_tagENS1_23unknown_orientation_tagE:
.LFB8527:
	.cfi_startproc
	endbr64
	pushq	%rbp
	.cfi_def_cfa_offset 16
	.cfi_offset 6, -16
	movq	%rsp, %rbp
	.cfi_def_cfa_register 6
	pushq	%rbx
	subq	$40, %rsp
	.cfi_offset 3, -24
	movq	%rdi, -24(%rbp)
	movq	%rsi, -32(%rbp)
	movq	%rdx, -40(%rbp)
	movq	-40(%rbp), %rax
	movq	%rax, %rdi
	call	_ZNK5boost7numeric5ublas17matrix_expressionINS1_6matrixIdNS1_15basic_row_majorImlEENS1_15unbounded_arrayIdSaIdEEEEEEclEv
	movq	%rax, %rbx
	movq	-32(%rbp), %rax
	movq	%rax, %rdi
	call	_ZNK5boost7numeric5ublas17matrix_expressionINS1_6matrixIdNS1_15basic_row_majorImlEENS1_15unbounded_arrayIdSaIdEEEEEEclEv
	movq	%rax, %rcx
	movq	-24(%rbp), %rax
	movq	%rbx, %rdx
	movq	%rcx, %rsi
	movq	%rax, %rdi
	call	_ZN5boost7numeric5ublas20matrix_matrix_binaryINS1_6matrixIdNS1_15basic_row_majorImlEENS1_15unbounded_arrayIdSaIdEEEEES9_NS1_18matrix_matrix_prodIS9_S9_dEEEC1ERKS9_SE_
	movq	-24(%rbp), %rax
	movq	-8(%rbp), %rbx
	leave
	.cfi_def_cfa 7, 8
	ret
	.cfi_endproc
.LFE8527:
	.size	_ZN5boost7numeric5ublas4prodINS1_6matrixIdNS1_15basic_row_majorImlEENS1_15unbounded_arrayIdSaIdEEEEES9_EENS1_27matrix_matrix_binary_traitsINT_10value_typeESB_NT0_10value_typeESD_E11result_typeERKNS1_17matrix_expressionISB_EERKNSH_ISD_EENS1_19unknown_storage_tagENS1_23unknown_orientation_tagE, .-_ZN5boost7numeric5ublas4prodINS1_6matrixIdNS1_15basic_row_majorImlEENS1_15unbounded_arrayIdSaIdEEEEES9_EENS1_27matrix_matrix_binary_traitsINT_10value_typeESB_NT0_10value_typeESD_E11result_typeERKNS1_17matrix_expressionISB_EERKNSH_ISD_EENS1_19unknown_storage_tagENS1_23unknown_orientation_tagE
	.section	.text._ZNK5boost7numeric5ublas17matrix_expressionINS1_20matrix_matrix_binaryINS1_6matrixIdNS1_15basic_row_majorImlEENS1_15unbounded_arrayIdSaIdEEEEESA_NS1_18matrix_matrix_prodISA_SA_dEEEEEclEv,"axG",@progbits,_ZNK5boost7numeric5ublas17matrix_expressionINS1_20matrix_matrix_binaryINS1_6matrixIdNS1_15basic_row_majorImlEENS1_15unbounded_arrayIdSaIdEEEEESA_NS1_18matrix_matrix_prodISA_SA_dEEEEEclEv,comdat
	.align 2
	.weak	_ZNK5boost7numeric5ublas17matrix_expressionINS1_20matrix_matrix_binaryINS1_6matrixIdNS1_15basic_row_majorImlEENS1_15unbounded_arrayIdSaIdEEEEESA_NS1_18matrix_matrix_prodISA_SA_dEEEEEclEv
	.type	_ZNK5boost7numeric5ublas17matrix_expressionINS1_20matrix_matrix_binaryINS1_6matrixIdNS1_15basic_row_majorImlEENS1_15unbounded_arrayIdSaIdEEEEESA_NS1_18matrix_matrix_prodISA_SA_dEEEEEclEv, @function
_ZNK5boost7numeric5ublas17matrix_expressionINS1_20matrix_matrix_binaryINS1_6matrixIdNS1_15basic_row_majorImlEENS1_15unbounded_arrayIdSaIdEEEEESA_NS1_18matrix_matrix_prodISA_SA_dEEEEEclEv:
.LFB8528:
	.cfi_startproc
	endbr64
	pushq	%rbp
	.cfi_def_cfa_offset 16
	.cfi_offset 6, -16
	movq	%rsp, %rbp
	.cfi_def_cfa_register 6
	movq	%rdi, -8(%rbp)
	movq	-8(%rbp), %rax
	popq	%rbp
	.cfi_def_cfa 7, 8
	ret
	.cfi_endproc
.LFE8528:
	.size	_ZNK5boost7numeric5ublas17matrix_expressionINS1_20matrix_matrix_binaryINS1_6matrixIdNS1_15basic_row_majorImlEENS1_15unbounded_arrayIdSaIdEEEEESA_NS1_18matrix_matrix_prodISA_SA_dEEEEEclEv, .-_ZNK5boost7numeric5ublas17matrix_expressionINS1_20matrix_matrix_binaryINS1_6matrixIdNS1_15basic_row_majorImlEENS1_15unbounded_arrayIdSaIdEEEEESA_NS1_18matrix_matrix_prodISA_SA_dEEEEEclEv
	.section	.text._ZNK5boost7numeric5ublas20matrix_matrix_binaryINS1_6matrixIdNS1_15basic_row_majorImlEENS1_15unbounded_arrayIdSaIdEEEEES9_NS1_18matrix_matrix_prodIS9_S9_dEEE5size1Ev,"axG",@progbits,_ZNK5boost7numeric5ublas20matrix_matrix_binaryINS1_6matrixIdNS1_15basic_row_majorImlEENS1_15unbounded_arrayIdSaIdEEEEES9_NS1_18matrix_matrix_prodIS9_S9_dEEE5size1Ev,comdat
	.align 2
	.weak	_ZNK5boost7numeric5ublas20matrix_matrix_binaryINS1_6matrixIdNS1_15basic_row_majorImlEENS1_15unbounded_arrayIdSaIdEEEEES9_NS1_18matrix_matrix_prodIS9_S9_dEEE5size1Ev
	.type	_ZNK5boost7numeric5ublas20matrix_matrix_binaryINS1_6matrixIdNS1_15basic_row_majorImlEENS1_15unbounded_arrayIdSaIdEEEEES9_NS1_18matrix_matrix_prodIS9_S9_dEEE5size1Ev, @function
_ZNK5boost7numeric5ublas20matrix_matrix_binaryINS1_6matrixIdNS1_15basic_row_majorImlEENS1_15unbounded_arrayIdSaIdEEEEES9_NS1_18matrix_matrix_prodIS9_S9_dEEE5size1Ev:
.LFB8529:
	.cfi_startproc
	endbr64
	pushq	%rbp
	.cfi_def_cfa_offset 16
	.cfi_offset 6, -16
	movq	%rsp, %rbp
	.cfi_def_cfa_register 6
	subq	$16, %rsp
	movq	%rdi, -8(%rbp)
	movq	-8(%rbp), %rax
	movq	%rax, %rdi
	call	_ZNK5boost7numeric5ublas16matrix_referenceIKNS1_6matrixIdNS1_15basic_row_majorImlEENS1_15unbounded_arrayIdSaIdEEEEEE5size1Ev
	leave
	.cfi_def_cfa 7, 8
	ret
	.cfi_endproc
.LFE8529:
	.size	_ZNK5boost7numeric5ublas20matrix_matrix_binaryINS1_6matrixIdNS1_15basic_row_majorImlEENS1_15unbounded_arrayIdSaIdEEEEES9_NS1_18matrix_matrix_prodIS9_S9_dEEE5size1Ev, .-_ZNK5boost7numeric5ublas20matrix_matrix_binaryINS1_6matrixIdNS1_15basic_row_majorImlEENS1_15unbounded_arrayIdSaIdEEEEES9_NS1_18matrix_matrix_prodIS9_S9_dEEE5size1Ev
	.section	.text._ZNK5boost7numeric5ublas20matrix_matrix_binaryINS1_6matrixIdNS1_15basic_row_majorImlEENS1_15unbounded_arrayIdSaIdEEEEES9_NS1_18matrix_matrix_prodIS9_S9_dEEE5size2Ev,"axG",@progbits,_ZNK5boost7numeric5ublas20matrix_matrix_binaryINS1_6matrixIdNS1_15basic_row_majorImlEENS1_15unbounded_arrayIdSaIdEEEEES9_NS1_18matrix_matrix_prodIS9_S9_dEEE5size2Ev,comdat
	.align 2
	.weak	_ZNK5boost7numeric5ublas20matrix_matrix_binaryINS1_6matrixIdNS1_15basic_row_majorImlEENS1_15unbounded_arrayIdSaIdEEEEES9_NS1_18matrix_matrix_prodIS9_S9_dEEE5size2Ev
	.type	_ZNK5boost7numeric5ublas20matrix_matrix_binaryINS1_6matrixIdNS1_15basic_row_majorImlEENS1_15unbounded_arrayIdSaIdEEEEES9_NS1_18matrix_matrix_prodIS9_S9_dEEE5size2Ev, @function
_ZNK5boost7numeric5ublas20matrix_matrix_binaryINS1_6matrixIdNS1_15basic_row_majorImlEENS1_15unbounded_arrayIdSaIdEEEEES9_NS1_18matrix_matrix_prodIS9_S9_dEEE5size2Ev:
.LFB8530:
	.cfi_startproc
	endbr64
	pushq	%rbp
	.cfi_def_cfa_offset 16
	.cfi_offset 6, -16
	movq	%rsp, %rbp
	.cfi_def_cfa_register 6
	subq	$16, %rsp
	movq	%rdi, -8(%rbp)
	movq	-8(%rbp), %rax
	addq	$8, %rax
	movq	%rax, %rdi
	call	_ZNK5boost7numeric5ublas16matrix_referenceIKNS1_6matrixIdNS1_15basic_row_majorImlEENS1_15unbounded_arrayIdSaIdEEEEEE5size2Ev
	leave
	.cfi_def_cfa 7, 8
	ret
	.cfi_endproc
.LFE8530:
	.size	_ZNK5boost7numeric5ublas20matrix_matrix_binaryINS1_6matrixIdNS1_15basic_row_majorImlEENS1_15unbounded_arrayIdSaIdEEEEES9_NS1_18matrix_matrix_prodIS9_S9_dEEE5size2Ev, .-_ZNK5boost7numeric5ublas20matrix_matrix_binaryINS1_6matrixIdNS1_15basic_row_majorImlEENS1_15unbounded_arrayIdSaIdEEEEES9_NS1_18matrix_matrix_prodIS9_S9_dEEE5size2Ev
	.section	.text._ZN5boost7numeric5ublas13matrix_assignINS1_13scalar_assignENS1_6matrixIdNS1_15basic_row_majorImlEENS1_15unbounded_arrayIdSaIdEEEEENS1_20matrix_matrix_binaryISA_SA_NS1_18matrix_matrix_prodISA_SA_dEEEEEEvRT0_RKNS1_17matrix_expressionIT1_EE,"axG",@progbits,_ZN5boost7numeric5ublas13matrix_assignINS1_13scalar_assignENS1_6matrixIdNS1_15basic_row_majorImlEENS1_15unbounded_arrayIdSaIdEEEEENS1_20matrix_matrix_binaryISA_SA_NS1_18matrix_matrix_prodISA_SA_dEEEEEEvRT0_RKNS1_17matrix_expressionIT1_EE,comdat
	.weak	_ZN5boost7numeric5ublas13matrix_assignINS1_13scalar_assignENS1_6matrixIdNS1_15basic_row_majorImlEENS1_15unbounded_arrayIdSaIdEEEEENS1_20matrix_matrix_binaryISA_SA_NS1_18matrix_matrix_prodISA_SA_dEEEEEEvRT0_RKNS1_17matrix_expressionIT1_EE
	.type	_ZN5boost7numeric5ublas13matrix_assignINS1_13scalar_assignENS1_6matrixIdNS1_15basic_row_majorImlEENS1_15unbounded_arrayIdSaIdEEEEENS1_20matrix_matrix_binaryISA_SA_NS1_18matrix_matrix_prodISA_SA_dEEEEEEvRT0_RKNS1_17matrix_expressionIT1_EE, @function
_ZN5boost7numeric5ublas13matrix_assignINS1_13scalar_assignENS1_6matrixIdNS1_15basic_row_majorImlEENS1_15unbounded_arrayIdSaIdEEEEENS1_20matrix_matrix_binaryISA_SA_NS1_18matrix_matrix_prodISA_SA_dEEEEEEvRT0_RKNS1_17matrix_expressionIT1_EE:
.LFB8531:
	.cfi_startproc
	endbr64
	pushq	%rbp
	.cfi_def_cfa_offset 16
	.cfi_offset 6, -16
	movq	%rsp, %rbp
	.cfi_def_cfa_register 6
	subq	$32, %rsp
	movq	%rdi, -24(%rbp)
	movq	%rsi, -32(%rbp)
	movq	%fs:40, %rax
	movq	%rax, -8(%rbp)
	xorl	%eax, %eax
	movq	-32(%rbp), %rdx
	movq	-24(%rbp), %rax
	movq	%rdx, %rsi
	movq	%rax, %rdi
	call	_ZN5boost7numeric5ublas13matrix_assignINS1_13scalar_assignENS1_10basic_fullImEENS1_6matrixIdNS1_15basic_row_majorImlEENS1_15unbounded_arrayIdSaIdEEEEENS1_20matrix_matrix_binaryISC_SC_NS1_18matrix_matrix_prodISC_SC_dEEEENS1_13row_major_tagEEEvRT1_RKNS1_17matrix_expressionIT2_EENS1_15dense_proxy_tagET3_
	nop
	movq	-8(%rbp), %rax
	subq	%fs:40, %rax
	je	.L168
	call	__stack_chk_fail@PLT
.L168:
	leave
	.cfi_def_cfa 7, 8
	ret
	.cfi_endproc
.LFE8531:
	.size	_ZN5boost7numeric5ublas13matrix_assignINS1_13scalar_assignENS1_6matrixIdNS1_15basic_row_majorImlEENS1_15unbounded_arrayIdSaIdEEEEENS1_20matrix_matrix_binaryISA_SA_NS1_18matrix_matrix_prodISA_SA_dEEEEEEvRT0_RKNS1_17matrix_expressionIT1_EE, .-_ZN5boost7numeric5ublas13matrix_assignINS1_13scalar_assignENS1_6matrixIdNS1_15basic_row_majorImlEENS1_15unbounded_arrayIdSaIdEEEEENS1_20matrix_matrix_binaryISA_SA_NS1_18matrix_matrix_prodISA_SA_dEEEEEEvRT0_RKNS1_17matrix_expressionIT1_EE
	.section	.text._ZNSt6chrono20__duration_cast_implINS_8durationIdSt5ratioILl1ELl1EEEES2_ILl1ELl1000000000EEdLb1ELb0EE6__castIlS5_EES4_RKNS1_IT_T0_EE,"axG",@progbits,_ZNSt6chrono20__duration_cast_implINS_8durationIdSt5ratioILl1ELl1EEEES2_ILl1ELl1000000000EEdLb1ELb0EE6__castIlS5_EES4_RKNS1_IT_T0_EE,comdat
	.weak	_ZNSt6chrono20__duration_cast_implINS_8durationIdSt5ratioILl1ELl1EEEES2_ILl1ELl1000000000EEdLb1ELb0EE6__castIlS5_EES4_RKNS1_IT_T0_EE
	.type	_ZNSt6chrono20__duration_cast_implINS_8durationIdSt5ratioILl1ELl1EEEES2_ILl1ELl1000000000EEdLb1ELb0EE6__castIlS5_EES4_RKNS1_IT_T0_EE, @function
_ZNSt6chrono20__duration_cast_implINS_8durationIdSt5ratioILl1ELl1EEEES2_ILl1ELl1000000000EEdLb1ELb0EE6__castIlS5_EES4_RKNS1_IT_T0_EE:
.LFB8532:
	.cfi_startproc
	endbr64
	pushq	%rbp
	.cfi_def_cfa_offset 16
	.cfi_offset 6, -16
	movq	%rsp, %rbp
	.cfi_def_cfa_register 6
	subq	$48, %rsp
	movq	%rdi, -40(%rbp)
	movq	%fs:40, %rax
	movq	%rax, -8(%rbp)
	xorl	%eax, %eax
	movq	-40(%rbp), %rax
	movq	%rax, %rdi
	call	_ZNKSt6chrono8durationIlSt5ratioILl1ELl1000000000EEE5countEv
	pxor	%xmm0, %xmm0
	cvtsi2sdq	%rax, %xmm0
	movsd	.LC28(%rip), %xmm1
	divsd	%xmm1, %xmm0
	movsd	%xmm0, -24(%rbp)
	leaq	-24(%rbp), %rdx
	leaq	-16(%rbp), %rax
	movq	%rdx, %rsi
	movq	%rax, %rdi
	call	_ZNSt6chrono8durationIdSt5ratioILl1ELl1EEEC1IdvEERKT_
	movsd	-16(%rbp), %xmm0
	movq	%xmm0, %rax
	movq	-8(%rbp), %rdx
	subq	%fs:40, %rdx
	je	.L171
	call	__stack_chk_fail@PLT
.L171:
	movq	%rax, %xmm0
	leave
	.cfi_def_cfa 7, 8
	ret
	.cfi_endproc
.LFE8532:
	.size	_ZNSt6chrono20__duration_cast_implINS_8durationIdSt5ratioILl1ELl1EEEES2_ILl1ELl1000000000EEdLb1ELb0EE6__castIlS5_EES4_RKNS1_IT_T0_EE, .-_ZNSt6chrono20__duration_cast_implINS_8durationIdSt5ratioILl1ELl1EEEES2_ILl1ELl1000000000EEdLb1ELb0EE6__castIlS5_EES4_RKNS1_IT_T0_EE
	.section	.text._ZN5boost7numeric5ublas6detail30ignore_unused_variable_warningImEEvRKT_,"axG",@progbits,_ZN5boost7numeric5ublas6detail30ignore_unused_variable_warningImEEvRKT_,comdat
	.weak	_ZN5boost7numeric5ublas6detail30ignore_unused_variable_warningImEEvRKT_
	.type	_ZN5boost7numeric5ublas6detail30ignore_unused_variable_warningImEEvRKT_, @function
_ZN5boost7numeric5ublas6detail30ignore_unused_variable_warningImEEvRKT_:
.LFB8600:
	.cfi_startproc
	endbr64
	pushq	%rbp
	.cfi_def_cfa_offset 16
	.cfi_offset 6, -16
	movq	%rsp, %rbp
	.cfi_def_cfa_register 6
	movq	%rdi, -8(%rbp)
	nop
	popq	%rbp
	.cfi_def_cfa 7, 8
	ret
	.cfi_endproc
.LFE8600:
	.size	_ZN5boost7numeric5ublas6detail30ignore_unused_variable_warningImEEvRKT_, .-_ZN5boost7numeric5ublas6detail30ignore_unused_variable_warningImEEvRKT_
	.section	.text._ZN9__gnu_cxx13new_allocatorIdEC2Ev,"axG",@progbits,_ZN9__gnu_cxx13new_allocatorIdEC5Ev,comdat
	.align 2
	.weak	_ZN9__gnu_cxx13new_allocatorIdEC2Ev
	.type	_ZN9__gnu_cxx13new_allocatorIdEC2Ev, @function
_ZN9__gnu_cxx13new_allocatorIdEC2Ev:
.LFB8603:
	.cfi_startproc
	endbr64
	pushq	%rbp
	.cfi_def_cfa_offset 16
	.cfi_offset 6, -16
	movq	%rsp, %rbp
	.cfi_def_cfa_register 6
	movq	%rdi, -8(%rbp)
	nop
	popq	%rbp
	.cfi_def_cfa 7, 8
	ret
	.cfi_endproc
.LFE8603:
	.size	_ZN9__gnu_cxx13new_allocatorIdEC2Ev, .-_ZN9__gnu_cxx13new_allocatorIdEC2Ev
	.weak	_ZN9__gnu_cxx13new_allocatorIdEC1Ev
	.set	_ZN9__gnu_cxx13new_allocatorIdEC1Ev,_ZN9__gnu_cxx13new_allocatorIdEC2Ev
	.section	.text._ZN9__gnu_cxx13new_allocatorIdED2Ev,"axG",@progbits,_ZN9__gnu_cxx13new_allocatorIdED5Ev,comdat
	.align 2
	.weak	_ZN9__gnu_cxx13new_allocatorIdED2Ev
	.type	_ZN9__gnu_cxx13new_allocatorIdED2Ev, @function
_ZN9__gnu_cxx13new_allocatorIdED2Ev:
.LFB8606:
	.cfi_startproc
	endbr64
	pushq	%rbp
	.cfi_def_cfa_offset 16
	.cfi_offset 6, -16
	movq	%rsp, %rbp
	.cfi_def_cfa_register 6
	movq	%rdi, -8(%rbp)
	nop
	popq	%rbp
	.cfi_def_cfa 7, 8
	ret
	.cfi_endproc
.LFE8606:
	.size	_ZN9__gnu_cxx13new_allocatorIdED2Ev, .-_ZN9__gnu_cxx13new_allocatorIdED2Ev
	.weak	_ZN9__gnu_cxx13new_allocatorIdED1Ev
	.set	_ZN9__gnu_cxx13new_allocatorIdED1Ev,_ZN9__gnu_cxx13new_allocatorIdED2Ev
	.section	.text._ZNSaIdEC2ERKS_,"axG",@progbits,_ZNSaIdEC5ERKS_,comdat
	.align 2
	.weak	_ZNSaIdEC2ERKS_
	.type	_ZNSaIdEC2ERKS_, @function
_ZNSaIdEC2ERKS_:
.LFB8609:
	.cfi_startproc
	endbr64
	pushq	%rbp
	.cfi_def_cfa_offset 16
	.cfi_offset 6, -16
	movq	%rsp, %rbp
	.cfi_def_cfa_register 6
	subq	$16, %rsp
	movq	%rdi, -8(%rbp)
	movq	%rsi, -16(%rbp)
	movq	-16(%rbp), %rdx
	movq	-8(%rbp), %rax
	movq	%rdx, %rsi
	movq	%rax, %rdi
	call	_ZN9__gnu_cxx13new_allocatorIdEC2ERKS1_
	nop
	leave
	.cfi_def_cfa 7, 8
	ret
	.cfi_endproc
.LFE8609:
	.size	_ZNSaIdEC2ERKS_, .-_ZNSaIdEC2ERKS_
	.weak	_ZNSaIdEC1ERKS_
	.set	_ZNSaIdEC1ERKS_,_ZNSaIdEC2ERKS_
	.section	.text._ZNK9__gnu_cxx13new_allocatorIdE11_M_max_sizeEv,"axG",@progbits,_ZNK9__gnu_cxx13new_allocatorIdE11_M_max_sizeEv,comdat
	.align 2
	.weak	_ZNK9__gnu_cxx13new_allocatorIdE11_M_max_sizeEv
	.type	_ZNK9__gnu_cxx13new_allocatorIdE11_M_max_sizeEv, @function
_ZNK9__gnu_cxx13new_allocatorIdE11_M_max_sizeEv:
.LFB8612:
	.cfi_startproc
	endbr64
	pushq	%rbp
	.cfi_def_cfa_offset 16
	.cfi_offset 6, -16
	movq	%rsp, %rbp
	.cfi_def_cfa_register 6
	movq	%rdi, -8(%rbp)
	movabsq	$1152921504606846975, %rax
	popq	%rbp
	.cfi_def_cfa 7, 8
	ret
	.cfi_endproc
.LFE8612:
	.size	_ZNK9__gnu_cxx13new_allocatorIdE11_M_max_sizeEv, .-_ZNK9__gnu_cxx13new_allocatorIdE11_M_max_sizeEv
	.section	.text._ZN9__gnu_cxx13new_allocatorIdE8allocateEmPKv,"axG",@progbits,_ZN9__gnu_cxx13new_allocatorIdE8allocateEmPKv,comdat
	.align 2
	.weak	_ZN9__gnu_cxx13new_allocatorIdE8allocateEmPKv
	.type	_ZN9__gnu_cxx13new_allocatorIdE8allocateEmPKv, @function
_ZN9__gnu_cxx13new_allocatorIdE8allocateEmPKv:
.LFB8611:
	.cfi_startproc
	endbr64
	pushq	%rbp
	.cfi_def_cfa_offset 16
	.cfi_offset 6, -16
	movq	%rsp, %rbp
	.cfi_def_cfa_register 6
	subq	$32, %rsp
	movq	%rdi, -8(%rbp)
	movq	%rsi, -16(%rbp)
	movq	%rdx, -24(%rbp)
	movq	-8(%rbp), %rax
	movq	%rax, %rdi
	call	_ZNK9__gnu_cxx13new_allocatorIdE11_M_max_sizeEv
	cmpq	%rax, -16(%rbp)
	seta	%al
	movzbl	%al, %eax
	testq	%rax, %rax
	setne	%al
	testb	%al, %al
	je	.L179
	movabsq	$2305843009213693951, %rax
	cmpq	%rax, -16(%rbp)
	jbe	.L180
	call	_ZSt28__throw_bad_array_new_lengthv@PLT
.L180:
	call	_ZSt17__throw_bad_allocv@PLT
.L179:
	movq	-16(%rbp), %rax
	salq	$3, %rax
	movq	%rax, %rdi
	call	_Znwm@PLT
	nop
	leave
	.cfi_def_cfa 7, 8
	ret
	.cfi_endproc
.LFE8611:
	.size	_ZN9__gnu_cxx13new_allocatorIdE8allocateEmPKv, .-_ZN9__gnu_cxx13new_allocatorIdE8allocateEmPKv
	.section	.text._ZN5boost7numeric5ublas6matrixIdNS1_15basic_row_majorImlEENS1_15unbounded_arrayIdSaIdEEEE4dataEv,"axG",@progbits,_ZN5boost7numeric5ublas6matrixIdNS1_15basic_row_majorImlEENS1_15unbounded_arrayIdSaIdEEEE4dataEv,comdat
	.align 2
	.weak	_ZN5boost7numeric5ublas6matrixIdNS1_15basic_row_majorImlEENS1_15unbounded_arrayIdSaIdEEEE4dataEv
	.type	_ZN5boost7numeric5ublas6matrixIdNS1_15basic_row_majorImlEENS1_15unbounded_arrayIdSaIdEEEE4dataEv, @function
_ZN5boost7numeric5ublas6matrixIdNS1_15basic_row_majorImlEENS1_15unbounded_arrayIdSaIdEEEE4dataEv:
.LFB8614:
	.cfi_startproc
	endbr64
	pushq	%rbp
	.cfi_def_cfa_offset 16
	.cfi_offset 6, -16
	movq	%rsp, %rbp
	.cfi_def_cfa_register 6
	movq	%rdi, -8(%rbp)
	movq	-8(%rbp), %rax
	addq	$16, %rax
	popq	%rbp
	.cfi_def_cfa 7, 8
	ret
	.cfi_endproc
.LFE8614:
	.size	_ZN5boost7numeric5ublas6matrixIdNS1_15basic_row_majorImlEENS1_15unbounded_arrayIdSaIdEEEE4dataEv, .-_ZN5boost7numeric5ublas6matrixIdNS1_15basic_row_majorImlEENS1_15unbounded_arrayIdSaIdEEEE4dataEv
	.section	.text._ZN5boost7numeric5ublas15unbounded_arrayIdSaIdEEixEm,"axG",@progbits,_ZN5boost7numeric5ublas15unbounded_arrayIdSaIdEEixEm,comdat
	.align 2
	.weak	_ZN5boost7numeric5ublas15unbounded_arrayIdSaIdEEixEm
	.type	_ZN5boost7numeric5ublas15unbounded_arrayIdSaIdEEixEm, @function
_ZN5boost7numeric5ublas15unbounded_arrayIdSaIdEEixEm:
.LFB8615:
	.cfi_startproc
	.cfi_personality 0x9b,DW.ref.__gxx_personality_v0
	.cfi_lsda 0x1b,.LLSDA8615
	endbr64
	pushq	%rbp
	.cfi_def_cfa_offset 16
	.cfi_offset 6, -16
	movq	%rsp, %rbp
	.cfi_def_cfa_register 6
	pushq	%rbx
	subq	$56, %rsp
	.cfi_offset 3, -24
	movq	%rdi, -56(%rbp)
	movq	%rsi, -64(%rbp)
	movq	%fs:40, %rax
	movq	%rax, -24(%rbp)
	xorl	%eax, %eax
	movq	-56(%rbp), %rax
	movq	8(%rax), %rax
	cmpq	%rax, -64(%rbp)
	jb	.L185
	leaq	.LC16(%rip), %rax
	movq	%rax, %rsi
	leaq	_ZSt4cerr(%rip), %rax
	movq	%rax, %rdi
.LEHB27:
	call	_ZStlsISt11char_traitsIcEERSt13basic_ostreamIcT_ES5_PKc@PLT
	movq	%rax, %rdx
	leaq	.LC24(%rip), %rax
	movq	%rax, %rsi
	movq	%rdx, %rdi
	call	_ZStlsISt11char_traitsIcEERSt13basic_ostreamIcT_ES5_PKc@PLT
	movq	%rax, %rdx
	leaq	.LC18(%rip), %rax
	movq	%rax, %rsi
	movq	%rdx, %rdi
	call	_ZStlsISt11char_traitsIcEERSt13basic_ostreamIcT_ES5_PKc@PLT
	movl	$237, %esi
	movq	%rax, %rdi
	call	_ZNSolsEi@PLT
	movq	%rax, %rdx
	leaq	.LC19(%rip), %rax
	movq	%rax, %rsi
	movq	%rdx, %rdi
	call	_ZStlsISt11char_traitsIcEERSt13basic_ostreamIcT_ES5_PKc@PLT
	movq	_ZSt4endlIcSt11char_traitsIcEERSt13basic_ostreamIT_T0_ES6_@GOTPCREL(%rip), %rdx
	movq	%rdx, %rsi
	movq	%rax, %rdi
	call	_ZNSolsEPFRSoS_E@PLT
	leaq	.LC25(%rip), %rax
	movq	%rax, %rsi
	leaq	_ZSt4cerr(%rip), %rax
	movq	%rax, %rdi
	call	_ZStlsISt11char_traitsIcEERSt13basic_ostreamIcT_ES5_PKc@PLT
	movq	_ZSt4endlIcSt11char_traitsIcEERSt13basic_ostreamIT_T0_ES6_@GOTPCREL(%rip), %rdx
	movq	%rdx, %rsi
	movq	%rax, %rdi
	call	_ZNSolsEPFRSoS_E@PLT
	leaq	-48(%rbp), %rax
	leaq	.LC21(%rip), %rdx
	movq	%rdx, %rsi
	movq	%rax, %rdi
	call	_ZN5boost7numeric5ublas9bad_indexC1EPKc
.LEHE27:
	leaq	-48(%rbp), %rax
	movq	%rax, %rdi
.LEHB28:
	call	_ZN5boost7numeric5ublas9bad_index5raiseEv
.LEHE28:
	leaq	-48(%rbp), %rax
	movq	%rax, %rdi
	call	_ZN5boost7numeric5ublas9bad_indexD1Ev
.L185:
	movq	-56(%rbp), %rax
	movq	16(%rax), %rdx
	movq	-64(%rbp), %rax
	salq	$3, %rax
	addq	%rdx, %rax
	movq	-24(%rbp), %rdx
	subq	%fs:40, %rdx
	je	.L188
	jmp	.L190
.L189:
	endbr64
	movq	%rax, %rbx
	leaq	-48(%rbp), %rax
	movq	%rax, %rdi
	call	_ZN5boost7numeric5ublas9bad_indexD1Ev
	movq	%rbx, %rax
	movq	%rax, %rdi
.LEHB29:
	call	_Unwind_Resume@PLT
.LEHE29:
.L190:
	call	__stack_chk_fail@PLT
.L188:
	movq	-8(%rbp), %rbx
	leave
	.cfi_def_cfa 7, 8
	ret
	.cfi_endproc
.LFE8615:
	.section	.gcc_except_table
.LLSDA8615:
	.byte	0xff
	.byte	0xff
	.byte	0x1
	.uleb128 .LLSDACSE8615-.LLSDACSB8615
.LLSDACSB8615:
	.uleb128 .LEHB27-.LFB8615
	.uleb128 .LEHE27-.LEHB27
	.uleb128 0
	.uleb128 0
	.uleb128 .LEHB28-.LFB8615
	.uleb128 .LEHE28-.LEHB28
	.uleb128 .L189-.LFB8615
	.uleb128 0
	.uleb128 .LEHB29-.LFB8615
	.uleb128 .LEHE29-.LEHB29
	.uleb128 0
	.uleb128 0
.LLSDACSE8615:
	.section	.text._ZN5boost7numeric5ublas15unbounded_arrayIdSaIdEEixEm,"axG",@progbits,_ZN5boost7numeric5ublas15unbounded_arrayIdSaIdEEixEm,comdat
	.size	_ZN5boost7numeric5ublas15unbounded_arrayIdSaIdEEixEm, .-_ZN5boost7numeric5ublas15unbounded_arrayIdSaIdEEixEm
	.section	.text._ZNK5boost7numeric5ublas17matrix_expressionINS1_6matrixIdNS1_15basic_row_majorImlEENS1_15unbounded_arrayIdSaIdEEEEEEclEv,"axG",@progbits,_ZNK5boost7numeric5ublas17matrix_expressionINS1_6matrixIdNS1_15basic_row_majorImlEENS1_15unbounded_arrayIdSaIdEEEEEEclEv,comdat
	.align 2
	.weak	_ZNK5boost7numeric5ublas17matrix_expressionINS1_6matrixIdNS1_15basic_row_majorImlEENS1_15unbounded_arrayIdSaIdEEEEEEclEv
	.type	_ZNK5boost7numeric5ublas17matrix_expressionINS1_6matrixIdNS1_15basic_row_majorImlEENS1_15unbounded_arrayIdSaIdEEEEEEclEv, @function
_ZNK5boost7numeric5ublas17matrix_expressionINS1_6matrixIdNS1_15basic_row_majorImlEENS1_15unbounded_arrayIdSaIdEEEEEEclEv:
.LFB8616:
	.cfi_startproc
	endbr64
	pushq	%rbp
	.cfi_def_cfa_offset 16
	.cfi_offset 6, -16
	movq	%rsp, %rbp
	.cfi_def_cfa_register 6
	movq	%rdi, -8(%rbp)
	movq	-8(%rbp), %rax
	popq	%rbp
	.cfi_def_cfa 7, 8
	ret
	.cfi_endproc
.LFE8616:
	.size	_ZNK5boost7numeric5ublas17matrix_expressionINS1_6matrixIdNS1_15basic_row_majorImlEENS1_15unbounded_arrayIdSaIdEEEEEEclEv, .-_ZNK5boost7numeric5ublas17matrix_expressionINS1_6matrixIdNS1_15basic_row_majorImlEENS1_15unbounded_arrayIdSaIdEEEEEEclEv
	.section	.text._ZN5boost7numeric5ublas17matrix_expressionINS1_20matrix_matrix_binaryINS1_6matrixIdNS1_15basic_row_majorImlEENS1_15unbounded_arrayIdSaIdEEEEESA_NS1_18matrix_matrix_prodISA_SA_dEEEEEC2Ev,"axG",@progbits,_ZN5boost7numeric5ublas17matrix_expressionINS1_20matrix_matrix_binaryINS1_6matrixIdNS1_15basic_row_majorImlEENS1_15unbounded_arrayIdSaIdEEEEESA_NS1_18matrix_matrix_prodISA_SA_dEEEEEC5Ev,comdat
	.align 2
	.weak	_ZN5boost7numeric5ublas17matrix_expressionINS1_20matrix_matrix_binaryINS1_6matrixIdNS1_15basic_row_majorImlEENS1_15unbounded_arrayIdSaIdEEEEESA_NS1_18matrix_matrix_prodISA_SA_dEEEEEC2Ev
	.type	_ZN5boost7numeric5ublas17matrix_expressionINS1_20matrix_matrix_binaryINS1_6matrixIdNS1_15basic_row_majorImlEENS1_15unbounded_arrayIdSaIdEEEEESA_NS1_18matrix_matrix_prodISA_SA_dEEEEEC2Ev, @function
_ZN5boost7numeric5ublas17matrix_expressionINS1_20matrix_matrix_binaryINS1_6matrixIdNS1_15basic_row_majorImlEENS1_15unbounded_arrayIdSaIdEEEEESA_NS1_18matrix_matrix_prodISA_SA_dEEEEEC2Ev:
.LFB8619:
	.cfi_startproc
	endbr64
	pushq	%rbp
	.cfi_def_cfa_offset 16
	.cfi_offset 6, -16
	movq	%rsp, %rbp
	.cfi_def_cfa_register 6
	subq	$16, %rsp
	movq	%rdi, -8(%rbp)
	movq	-8(%rbp), %rax
	movq	%rax, %rdi
	call	_ZN5boost7numeric5ublas16ublas_expressionINS1_20matrix_matrix_binaryINS1_6matrixIdNS1_15basic_row_majorImlEENS1_15unbounded_arrayIdSaIdEEEEESA_NS1_18matrix_matrix_prodISA_SA_dEEEEEC2Ev
	nop
	leave
	.cfi_def_cfa 7, 8
	ret
	.cfi_endproc
.LFE8619:
	.size	_ZN5boost7numeric5ublas17matrix_expressionINS1_20matrix_matrix_binaryINS1_6matrixIdNS1_15basic_row_majorImlEENS1_15unbounded_arrayIdSaIdEEEEESA_NS1_18matrix_matrix_prodISA_SA_dEEEEEC2Ev, .-_ZN5boost7numeric5ublas17matrix_expressionINS1_20matrix_matrix_binaryINS1_6matrixIdNS1_15basic_row_majorImlEENS1_15unbounded_arrayIdSaIdEEEEESA_NS1_18matrix_matrix_prodISA_SA_dEEEEEC2Ev
	.weak	_ZN5boost7numeric5ublas17matrix_expressionINS1_20matrix_matrix_binaryINS1_6matrixIdNS1_15basic_row_majorImlEENS1_15unbounded_arrayIdSaIdEEEEESA_NS1_18matrix_matrix_prodISA_SA_dEEEEEC1Ev
	.set	_ZN5boost7numeric5ublas17matrix_expressionINS1_20matrix_matrix_binaryINS1_6matrixIdNS1_15basic_row_majorImlEENS1_15unbounded_arrayIdSaIdEEEEESA_NS1_18matrix_matrix_prodISA_SA_dEEEEEC1Ev,_ZN5boost7numeric5ublas17matrix_expressionINS1_20matrix_matrix_binaryINS1_6matrixIdNS1_15basic_row_majorImlEENS1_15unbounded_arrayIdSaIdEEEEESA_NS1_18matrix_matrix_prodISA_SA_dEEEEEC2Ev
	.section	.text._ZN5boost7numeric5ublas20matrix_matrix_binaryINS1_6matrixIdNS1_15basic_row_majorImlEENS1_15unbounded_arrayIdSaIdEEEEES9_NS1_18matrix_matrix_prodIS9_S9_dEEEC2ERKS9_SE_,"axG",@progbits,_ZN5boost7numeric5ublas20matrix_matrix_binaryINS1_6matrixIdNS1_15basic_row_majorImlEENS1_15unbounded_arrayIdSaIdEEEEES9_NS1_18matrix_matrix_prodIS9_S9_dEEEC5ERKS9_SE_,comdat
	.align 2
	.weak	_ZN5boost7numeric5ublas20matrix_matrix_binaryINS1_6matrixIdNS1_15basic_row_majorImlEENS1_15unbounded_arrayIdSaIdEEEEES9_NS1_18matrix_matrix_prodIS9_S9_dEEEC2ERKS9_SE_
	.type	_ZN5boost7numeric5ublas20matrix_matrix_binaryINS1_6matrixIdNS1_15basic_row_majorImlEENS1_15unbounded_arrayIdSaIdEEEEES9_NS1_18matrix_matrix_prodIS9_S9_dEEEC2ERKS9_SE_, @function
_ZN5boost7numeric5ublas20matrix_matrix_binaryINS1_6matrixIdNS1_15basic_row_majorImlEENS1_15unbounded_arrayIdSaIdEEEEES9_NS1_18matrix_matrix_prodIS9_S9_dEEEC2ERKS9_SE_:
.LFB8621:
	.cfi_startproc
	.cfi_personality 0x9b,DW.ref.__gxx_personality_v0
	.cfi_lsda 0x1b,.LLSDA8621
	endbr64
	pushq	%rbp
	.cfi_def_cfa_offset 16
	.cfi_offset 6, -16
	movq	%rsp, %rbp
	.cfi_def_cfa_register 6
	pushq	%rbx
	subq	$40, %rsp
	.cfi_offset 3, -24
	movq	%rdi, -24(%rbp)
	movq	%rsi, -32(%rbp)
	movq	%rdx, -40(%rbp)
	movq	-24(%rbp), %rax
	movq	%rax, %rdi
	call	_ZN5boost7numeric5ublas17matrix_expressionINS1_20matrix_matrix_binaryINS1_6matrixIdNS1_15basic_row_majorImlEENS1_15unbounded_arrayIdSaIdEEEEESA_NS1_18matrix_matrix_prodISA_SA_dEEEEEC2Ev
	movq	-24(%rbp), %rax
	movq	-32(%rbp), %rdx
	movq	%rdx, %rsi
	movq	%rax, %rdi
.LEHB30:
	call	_ZN5boost7numeric5ublas16matrix_referenceIKNS1_6matrixIdNS1_15basic_row_majorImlEENS1_15unbounded_arrayIdSaIdEEEEEEC1ERSA_
.LEHE30:
	movq	-24(%rbp), %rax
	leaq	8(%rax), %rdx
	movq	-40(%rbp), %rax
	movq	%rax, %rsi
	movq	%rdx, %rdi
.LEHB31:
	call	_ZN5boost7numeric5ublas16matrix_referenceIKNS1_6matrixIdNS1_15basic_row_majorImlEENS1_15unbounded_arrayIdSaIdEEEEEEC1ERSA_
.LEHE31:
	jmp	.L199
.L198:
	endbr64
	movq	%rax, %rbx
	movq	-24(%rbp), %rax
	movq	%rax, %rdi
	call	_ZN5boost7numeric5ublas16matrix_referenceIKNS1_6matrixIdNS1_15basic_row_majorImlEENS1_15unbounded_arrayIdSaIdEEEEEED1Ev
	jmp	.L196
.L197:
	endbr64
	movq	%rax, %rbx
.L196:
	movq	-24(%rbp), %rax
	movq	%rax, %rdi
	call	_ZN5boost7numeric5ublas17matrix_expressionINS1_20matrix_matrix_binaryINS1_6matrixIdNS1_15basic_row_majorImlEENS1_15unbounded_arrayIdSaIdEEEEESA_NS1_18matrix_matrix_prodISA_SA_dEEEEED2Ev
	movq	%rbx, %rax
	movq	%rax, %rdi
.LEHB32:
	call	_Unwind_Resume@PLT
.LEHE32:
.L199:
	movq	-8(%rbp), %rbx
	leave
	.cfi_def_cfa 7, 8
	ret
	.cfi_endproc
.LFE8621:
	.section	.gcc_except_table
.LLSDA8621:
	.byte	0xff
	.byte	0xff
	.byte	0x1
	.uleb128 .LLSDACSE8621-.LLSDACSB8621
.LLSDACSB8621:
	.uleb128 .LEHB30-.LFB8621
	.uleb128 .LEHE30-.LEHB30
	.uleb128 .L197-.LFB8621
	.uleb128 0
	.uleb128 .LEHB31-.LFB8621
	.uleb128 .LEHE31-.LEHB31
	.uleb128 .L198-.LFB8621
	.uleb128 0
	.uleb128 .LEHB32-.LFB8621
	.uleb128 .LEHE32-.LEHB32
	.uleb128 0
	.uleb128 0
.LLSDACSE8621:
	.section	.text._ZN5boost7numeric5ublas20matrix_matrix_binaryINS1_6matrixIdNS1_15basic_row_majorImlEENS1_15unbounded_arrayIdSaIdEEEEES9_NS1_18matrix_matrix_prodIS9_S9_dEEEC2ERKS9_SE_,"axG",@progbits,_ZN5boost7numeric5ublas20matrix_matrix_binaryINS1_6matrixIdNS1_15basic_row_majorImlEENS1_15unbounded_arrayIdSaIdEEEEES9_NS1_18matrix_matrix_prodIS9_S9_dEEEC5ERKS9_SE_,comdat
	.size	_ZN5boost7numeric5ublas20matrix_matrix_binaryINS1_6matrixIdNS1_15basic_row_majorImlEENS1_15unbounded_arrayIdSaIdEEEEES9_NS1_18matrix_matrix_prodIS9_S9_dEEEC2ERKS9_SE_, .-_ZN5boost7numeric5ublas20matrix_matrix_binaryINS1_6matrixIdNS1_15basic_row_majorImlEENS1_15unbounded_arrayIdSaIdEEEEES9_NS1_18matrix_matrix_prodIS9_S9_dEEEC2ERKS9_SE_
	.weak	_ZN5boost7numeric5ublas20matrix_matrix_binaryINS1_6matrixIdNS1_15basic_row_majorImlEENS1_15unbounded_arrayIdSaIdEEEEES9_NS1_18matrix_matrix_prodIS9_S9_dEEEC1ERKS9_SE_
	.set	_ZN5boost7numeric5ublas20matrix_matrix_binaryINS1_6matrixIdNS1_15basic_row_majorImlEENS1_15unbounded_arrayIdSaIdEEEEES9_NS1_18matrix_matrix_prodIS9_S9_dEEEC1ERKS9_SE_,_ZN5boost7numeric5ublas20matrix_matrix_binaryINS1_6matrixIdNS1_15basic_row_majorImlEENS1_15unbounded_arrayIdSaIdEEEEES9_NS1_18matrix_matrix_prodIS9_S9_dEEEC2ERKS9_SE_
	.section	.text._ZNK5boost7numeric5ublas16matrix_referenceIKNS1_6matrixIdNS1_15basic_row_majorImlEENS1_15unbounded_arrayIdSaIdEEEEEE5size1Ev,"axG",@progbits,_ZNK5boost7numeric5ublas16matrix_referenceIKNS1_6matrixIdNS1_15basic_row_majorImlEENS1_15unbounded_arrayIdSaIdEEEEEE5size1Ev,comdat
	.align 2
	.weak	_ZNK5boost7numeric5ublas16matrix_referenceIKNS1_6matrixIdNS1_15basic_row_majorImlEENS1_15unbounded_arrayIdSaIdEEEEEE5size1Ev
	.type	_ZNK5boost7numeric5ublas16matrix_referenceIKNS1_6matrixIdNS1_15basic_row_majorImlEENS1_15unbounded_arrayIdSaIdEEEEEE5size1Ev, @function
_ZNK5boost7numeric5ublas16matrix_referenceIKNS1_6matrixIdNS1_15basic_row_majorImlEENS1_15unbounded_arrayIdSaIdEEEEEE5size1Ev:
.LFB8623:
	.cfi_startproc
	endbr64
	pushq	%rbp
	.cfi_def_cfa_offset 16
	.cfi_offset 6, -16
	movq	%rsp, %rbp
	.cfi_def_cfa_register 6
	subq	$16, %rsp
	movq	%rdi, -8(%rbp)
	movq	-8(%rbp), %rax
	movq	(%rax), %rax
	movq	%rax, %rdi
	call	_ZNK5boost7numeric5ublas6matrixIdNS1_15basic_row_majorImlEENS1_15unbounded_arrayIdSaIdEEEE5size1Ev
	leave
	.cfi_def_cfa 7, 8
	ret
	.cfi_endproc
.LFE8623:
	.size	_ZNK5boost7numeric5ublas16matrix_referenceIKNS1_6matrixIdNS1_15basic_row_majorImlEENS1_15unbounded_arrayIdSaIdEEEEEE5size1Ev, .-_ZNK5boost7numeric5ublas16matrix_referenceIKNS1_6matrixIdNS1_15basic_row_majorImlEENS1_15unbounded_arrayIdSaIdEEEEEE5size1Ev
	.section	.text._ZNK5boost7numeric5ublas16matrix_referenceIKNS1_6matrixIdNS1_15basic_row_majorImlEENS1_15unbounded_arrayIdSaIdEEEEEE5size2Ev,"axG",@progbits,_ZNK5boost7numeric5ublas16matrix_referenceIKNS1_6matrixIdNS1_15basic_row_majorImlEENS1_15unbounded_arrayIdSaIdEEEEEE5size2Ev,comdat
	.align 2
	.weak	_ZNK5boost7numeric5ublas16matrix_referenceIKNS1_6matrixIdNS1_15basic_row_majorImlEENS1_15unbounded_arrayIdSaIdEEEEEE5size2Ev
	.type	_ZNK5boost7numeric5ublas16matrix_referenceIKNS1_6matrixIdNS1_15basic_row_majorImlEENS1_15unbounded_arrayIdSaIdEEEEEE5size2Ev, @function
_ZNK5boost7numeric5ublas16matrix_referenceIKNS1_6matrixIdNS1_15basic_row_majorImlEENS1_15unbounded_arrayIdSaIdEEEEEE5size2Ev:
.LFB8624:
	.cfi_startproc
	endbr64
	pushq	%rbp
	.cfi_def_cfa_offset 16
	.cfi_offset 6, -16
	movq	%rsp, %rbp
	.cfi_def_cfa_register 6
	subq	$16, %rsp
	movq	%rdi, -8(%rbp)
	movq	-8(%rbp), %rax
	movq	(%rax), %rax
	movq	%rax, %rdi
	call	_ZNK5boost7numeric5ublas6matrixIdNS1_15basic_row_majorImlEENS1_15unbounded_arrayIdSaIdEEEE5size2Ev
	leave
	.cfi_def_cfa 7, 8
	ret
	.cfi_endproc
.LFE8624:
	.size	_ZNK5boost7numeric5ublas16matrix_referenceIKNS1_6matrixIdNS1_15basic_row_majorImlEENS1_15unbounded_arrayIdSaIdEEEEEE5size2Ev, .-_ZNK5boost7numeric5ublas16matrix_referenceIKNS1_6matrixIdNS1_15basic_row_majorImlEENS1_15unbounded_arrayIdSaIdEEEEEE5size2Ev
	.section	.text._ZN5boost7numeric5ublas13matrix_assignINS1_13scalar_assignENS1_10basic_fullImEENS1_6matrixIdNS1_15basic_row_majorImlEENS1_15unbounded_arrayIdSaIdEEEEENS1_20matrix_matrix_binaryISC_SC_NS1_18matrix_matrix_prodISC_SC_dEEEENS1_13row_major_tagEEEvRT1_RKNS1_17matrix_expressionIT2_EENS1_15dense_proxy_tagET3_,"axG",@progbits,_ZN5boost7numeric5ublas13matrix_assignINS1_13scalar_assignENS1_10basic_fullImEENS1_6matrixIdNS1_15basic_row_majorImlEENS1_15unbounded_arrayIdSaIdEEEEENS1_20matrix_matrix_binaryISC_SC_NS1_18matrix_matrix_prodISC_SC_dEEEENS1_13row_major_tagEEEvRT1_RKNS1_17matrix_expressionIT2_EENS1_15dense_proxy_tagET3_,comdat
	.weak	_ZN5boost7numeric5ublas13matrix_assignINS1_13scalar_assignENS1_10basic_fullImEENS1_6matrixIdNS1_15basic_row_majorImlEENS1_15unbounded_arrayIdSaIdEEEEENS1_20matrix_matrix_binaryISC_SC_NS1_18matrix_matrix_prodISC_SC_dEEEENS1_13row_major_tagEEEvRT1_RKNS1_17matrix_expressionIT2_EENS1_15dense_proxy_tagET3_
	.type	_ZN5boost7numeric5ublas13matrix_assignINS1_13scalar_assignENS1_10basic_fullImEENS1_6matrixIdNS1_15basic_row_majorImlEENS1_15unbounded_arrayIdSaIdEEEEENS1_20matrix_matrix_binaryISC_SC_NS1_18matrix_matrix_prodISC_SC_dEEEENS1_13row_major_tagEEEvRT1_RKNS1_17matrix_expressionIT2_EENS1_15dense_proxy_tagET3_, @function
_ZN5boost7numeric5ublas13matrix_assignINS1_13scalar_assignENS1_10basic_fullImEENS1_6matrixIdNS1_15basic_row_majorImlEENS1_15unbounded_arrayIdSaIdEEEEENS1_20matrix_matrix_binaryISC_SC_NS1_18matrix_matrix_prodISC_SC_dEEEENS1_13row_major_tagEEEvRT1_RKNS1_17matrix_expressionIT2_EENS1_15dense_proxy_tagET3_:
.LFB8625:
	.cfi_startproc
	endbr64
	pushq	%rbp
	.cfi_def_cfa_offset 16
	.cfi_offset 6, -16
	movq	%rsp, %rbp
	.cfi_def_cfa_register 6
	subq	$16, %rsp
	movq	%rdi, -8(%rbp)
	movq	%rsi, -16(%rbp)
	movq	-16(%rbp), %rdx
	movq	-8(%rbp), %rax
	movq	%rdx, %rsi
	movq	%rax, %rdi
	call	_ZN5boost7numeric5ublas22indexing_matrix_assignINS1_13scalar_assignENS1_6matrixIdNS1_15basic_row_majorImlEENS1_15unbounded_arrayIdSaIdEEEEENS1_20matrix_matrix_binaryISA_SA_NS1_18matrix_matrix_prodISA_SA_dEEEEEEvRT0_RKNS1_17matrix_expressionIT1_EENS1_13row_major_tagE
	nop
	leave
	.cfi_def_cfa 7, 8
	ret
	.cfi_endproc
.LFE8625:
	.size	_ZN5boost7numeric5ublas13matrix_assignINS1_13scalar_assignENS1_10basic_fullImEENS1_6matrixIdNS1_15basic_row_majorImlEENS1_15unbounded_arrayIdSaIdEEEEENS1_20matrix_matrix_binaryISC_SC_NS1_18matrix_matrix_prodISC_SC_dEEEENS1_13row_major_tagEEEvRT1_RKNS1_17matrix_expressionIT2_EENS1_15dense_proxy_tagET3_, .-_ZN5boost7numeric5ublas13matrix_assignINS1_13scalar_assignENS1_10basic_fullImEENS1_6matrixIdNS1_15basic_row_majorImlEENS1_15unbounded_arrayIdSaIdEEEEENS1_20matrix_matrix_binaryISC_SC_NS1_18matrix_matrix_prodISC_SC_dEEEENS1_13row_major_tagEEEvRT1_RKNS1_17matrix_expressionIT2_EENS1_15dense_proxy_tagET3_
	.section	.text._ZNSt6chrono8durationIdSt5ratioILl1ELl1EEEC2IdvEERKT_,"axG",@progbits,_ZNSt6chrono8durationIdSt5ratioILl1ELl1EEEC5IdvEERKT_,comdat
	.align 2
	.weak	_ZNSt6chrono8durationIdSt5ratioILl1ELl1EEEC2IdvEERKT_
	.type	_ZNSt6chrono8durationIdSt5ratioILl1ELl1EEEC2IdvEERKT_, @function
_ZNSt6chrono8durationIdSt5ratioILl1ELl1EEEC2IdvEERKT_:
.LFB8627:
	.cfi_startproc
	endbr64
	pushq	%rbp
	.cfi_def_cfa_offset 16
	.cfi_offset 6, -16
	movq	%rsp, %rbp
	.cfi_def_cfa_register 6
	movq	%rdi, -8(%rbp)
	movq	%rsi, -16(%rbp)
	movq	-16(%rbp), %rax
	movsd	(%rax), %xmm0
	movq	-8(%rbp), %rax
	movsd	%xmm0, (%rax)
	nop
	popq	%rbp
	.cfi_def_cfa 7, 8
	ret
	.cfi_endproc
.LFE8627:
	.size	_ZNSt6chrono8durationIdSt5ratioILl1ELl1EEEC2IdvEERKT_, .-_ZNSt6chrono8durationIdSt5ratioILl1ELl1EEEC2IdvEERKT_
	.weak	_ZNSt6chrono8durationIdSt5ratioILl1ELl1EEEC1IdvEERKT_
	.set	_ZNSt6chrono8durationIdSt5ratioILl1ELl1EEEC1IdvEERKT_,_ZNSt6chrono8durationIdSt5ratioILl1ELl1EEEC2IdvEERKT_
	.section	.text._ZN9__gnu_cxx13new_allocatorIdEC2ERKS1_,"axG",@progbits,_ZN9__gnu_cxx13new_allocatorIdEC5ERKS1_,comdat
	.align 2
	.weak	_ZN9__gnu_cxx13new_allocatorIdEC2ERKS1_
	.type	_ZN9__gnu_cxx13new_allocatorIdEC2ERKS1_, @function
_ZN9__gnu_cxx13new_allocatorIdEC2ERKS1_:
.LFB8688:
	.cfi_startproc
	endbr64
	pushq	%rbp
	.cfi_def_cfa_offset 16
	.cfi_offset 6, -16
	movq	%rsp, %rbp
	.cfi_def_cfa_register 6
	movq	%rdi, -8(%rbp)
	movq	%rsi, -16(%rbp)
	nop
	popq	%rbp
	.cfi_def_cfa 7, 8
	ret
	.cfi_endproc
.LFE8688:
	.size	_ZN9__gnu_cxx13new_allocatorIdEC2ERKS1_, .-_ZN9__gnu_cxx13new_allocatorIdEC2ERKS1_
	.weak	_ZN9__gnu_cxx13new_allocatorIdEC1ERKS1_
	.set	_ZN9__gnu_cxx13new_allocatorIdEC1ERKS1_,_ZN9__gnu_cxx13new_allocatorIdEC2ERKS1_
	.section	.text._ZN5boost7numeric5ublas16ublas_expressionINS1_20matrix_matrix_binaryINS1_6matrixIdNS1_15basic_row_majorImlEENS1_15unbounded_arrayIdSaIdEEEEESA_NS1_18matrix_matrix_prodISA_SA_dEEEEEC2Ev,"axG",@progbits,_ZN5boost7numeric5ublas16ublas_expressionINS1_20matrix_matrix_binaryINS1_6matrixIdNS1_15basic_row_majorImlEENS1_15unbounded_arrayIdSaIdEEEEESA_NS1_18matrix_matrix_prodISA_SA_dEEEEEC5Ev,comdat
	.align 2
	.weak	_ZN5boost7numeric5ublas16ublas_expressionINS1_20matrix_matrix_binaryINS1_6matrixIdNS1_15basic_row_majorImlEENS1_15unbounded_arrayIdSaIdEEEEESA_NS1_18matrix_matrix_prodISA_SA_dEEEEEC2Ev
	.type	_ZN5boost7numeric5ublas16ublas_expressionINS1_20matrix_matrix_binaryINS1_6matrixIdNS1_15basic_row_majorImlEENS1_15unbounded_arrayIdSaIdEEEEESA_NS1_18matrix_matrix_prodISA_SA_dEEEEEC2Ev, @function
_ZN5boost7numeric5ublas16ublas_expressionINS1_20matrix_matrix_binaryINS1_6matrixIdNS1_15basic_row_majorImlEENS1_15unbounded_arrayIdSaIdEEEEESA_NS1_18matrix_matrix_prodISA_SA_dEEEEEC2Ev:
.LFB8692:
	.cfi_startproc
	endbr64
	pushq	%rbp
	.cfi_def_cfa_offset 16
	.cfi_offset 6, -16
	movq	%rsp, %rbp
	.cfi_def_cfa_register 6
	movq	%rdi, -8(%rbp)
	nop
	popq	%rbp
	.cfi_def_cfa 7, 8
	ret
	.cfi_endproc
.LFE8692:
	.size	_ZN5boost7numeric5ublas16ublas_expressionINS1_20matrix_matrix_binaryINS1_6matrixIdNS1_15basic_row_majorImlEENS1_15unbounded_arrayIdSaIdEEEEESA_NS1_18matrix_matrix_prodISA_SA_dEEEEEC2Ev, .-_ZN5boost7numeric5ublas16ublas_expressionINS1_20matrix_matrix_binaryINS1_6matrixIdNS1_15basic_row_majorImlEENS1_15unbounded_arrayIdSaIdEEEEESA_NS1_18matrix_matrix_prodISA_SA_dEEEEEC2Ev
	.weak	_ZN5boost7numeric5ublas16ublas_expressionINS1_20matrix_matrix_binaryINS1_6matrixIdNS1_15basic_row_majorImlEENS1_15unbounded_arrayIdSaIdEEEEESA_NS1_18matrix_matrix_prodISA_SA_dEEEEEC1Ev
	.set	_ZN5boost7numeric5ublas16ublas_expressionINS1_20matrix_matrix_binaryINS1_6matrixIdNS1_15basic_row_majorImlEENS1_15unbounded_arrayIdSaIdEEEEESA_NS1_18matrix_matrix_prodISA_SA_dEEEEEC1Ev,_ZN5boost7numeric5ublas16ublas_expressionINS1_20matrix_matrix_binaryINS1_6matrixIdNS1_15basic_row_majorImlEENS1_15unbounded_arrayIdSaIdEEEEESA_NS1_18matrix_matrix_prodISA_SA_dEEEEEC2Ev
	.section	.text._ZN5boost7numeric5ublas17matrix_expressionINS1_16matrix_referenceIKNS1_6matrixIdNS1_15basic_row_majorImlEENS1_15unbounded_arrayIdSaIdEEEEEEEEC2Ev,"axG",@progbits,_ZN5boost7numeric5ublas17matrix_expressionINS1_16matrix_referenceIKNS1_6matrixIdNS1_15basic_row_majorImlEENS1_15unbounded_arrayIdSaIdEEEEEEEEC5Ev,comdat
	.align 2
	.weak	_ZN5boost7numeric5ublas17matrix_expressionINS1_16matrix_referenceIKNS1_6matrixIdNS1_15basic_row_majorImlEENS1_15unbounded_arrayIdSaIdEEEEEEEEC2Ev
	.type	_ZN5boost7numeric5ublas17matrix_expressionINS1_16matrix_referenceIKNS1_6matrixIdNS1_15basic_row_majorImlEENS1_15unbounded_arrayIdSaIdEEEEEEEEC2Ev, @function
_ZN5boost7numeric5ublas17matrix_expressionINS1_16matrix_referenceIKNS1_6matrixIdNS1_15basic_row_majorImlEENS1_15unbounded_arrayIdSaIdEEEEEEEEC2Ev:
.LFB8696:
	.cfi_startproc
	endbr64
	pushq	%rbp
	.cfi_def_cfa_offset 16
	.cfi_offset 6, -16
	movq	%rsp, %rbp
	.cfi_def_cfa_register 6
	subq	$16, %rsp
	movq	%rdi, -8(%rbp)
	movq	-8(%rbp), %rax
	movq	%rax, %rdi
	call	_ZN5boost7numeric5ublas16ublas_expressionINS1_16matrix_referenceIKNS1_6matrixIdNS1_15basic_row_majorImlEENS1_15unbounded_arrayIdSaIdEEEEEEEEC2Ev
	nop
	leave
	.cfi_def_cfa 7, 8
	ret
	.cfi_endproc
.LFE8696:
	.size	_ZN5boost7numeric5ublas17matrix_expressionINS1_16matrix_referenceIKNS1_6matrixIdNS1_15basic_row_majorImlEENS1_15unbounded_arrayIdSaIdEEEEEEEEC2Ev, .-_ZN5boost7numeric5ublas17matrix_expressionINS1_16matrix_referenceIKNS1_6matrixIdNS1_15basic_row_majorImlEENS1_15unbounded_arrayIdSaIdEEEEEEEEC2Ev
	.weak	_ZN5boost7numeric5ublas17matrix_expressionINS1_16matrix_referenceIKNS1_6matrixIdNS1_15basic_row_majorImlEENS1_15unbounded_arrayIdSaIdEEEEEEEEC1Ev
	.set	_ZN5boost7numeric5ublas17matrix_expressionINS1_16matrix_referenceIKNS1_6matrixIdNS1_15basic_row_majorImlEENS1_15unbounded_arrayIdSaIdEEEEEEEEC1Ev,_ZN5boost7numeric5ublas17matrix_expressionINS1_16matrix_referenceIKNS1_6matrixIdNS1_15basic_row_majorImlEENS1_15unbounded_arrayIdSaIdEEEEEEEEC2Ev
	.section	.text._ZN5boost7numeric5ublas16matrix_referenceIKNS1_6matrixIdNS1_15basic_row_majorImlEENS1_15unbounded_arrayIdSaIdEEEEEEC2ERSA_,"axG",@progbits,_ZN5boost7numeric5ublas16matrix_referenceIKNS1_6matrixIdNS1_15basic_row_majorImlEENS1_15unbounded_arrayIdSaIdEEEEEEC5ERSA_,comdat
	.align 2
	.weak	_ZN5boost7numeric5ublas16matrix_referenceIKNS1_6matrixIdNS1_15basic_row_majorImlEENS1_15unbounded_arrayIdSaIdEEEEEEC2ERSA_
	.type	_ZN5boost7numeric5ublas16matrix_referenceIKNS1_6matrixIdNS1_15basic_row_majorImlEENS1_15unbounded_arrayIdSaIdEEEEEEC2ERSA_, @function
_ZN5boost7numeric5ublas16matrix_referenceIKNS1_6matrixIdNS1_15basic_row_majorImlEENS1_15unbounded_arrayIdSaIdEEEEEEC2ERSA_:
.LFB8698:
	.cfi_startproc
	endbr64
	pushq	%rbp
	.cfi_def_cfa_offset 16
	.cfi_offset 6, -16
	movq	%rsp, %rbp
	.cfi_def_cfa_register 6
	subq	$16, %rsp
	movq	%rdi, -8(%rbp)
	movq	%rsi, -16(%rbp)
	movq	-8(%rbp), %rax
	movq	%rax, %rdi
	call	_ZN5boost7numeric5ublas17matrix_expressionINS1_16matrix_referenceIKNS1_6matrixIdNS1_15basic_row_majorImlEENS1_15unbounded_arrayIdSaIdEEEEEEEEC2Ev
	movq	-8(%rbp), %rax
	movq	-16(%rbp), %rdx
	movq	%rdx, (%rax)
	nop
	leave
	.cfi_def_cfa 7, 8
	ret
	.cfi_endproc
.LFE8698:
	.size	_ZN5boost7numeric5ublas16matrix_referenceIKNS1_6matrixIdNS1_15basic_row_majorImlEENS1_15unbounded_arrayIdSaIdEEEEEEC2ERSA_, .-_ZN5boost7numeric5ublas16matrix_referenceIKNS1_6matrixIdNS1_15basic_row_majorImlEENS1_15unbounded_arrayIdSaIdEEEEEEC2ERSA_
	.weak	_ZN5boost7numeric5ublas16matrix_referenceIKNS1_6matrixIdNS1_15basic_row_majorImlEENS1_15unbounded_arrayIdSaIdEEEEEEC1ERSA_
	.set	_ZN5boost7numeric5ublas16matrix_referenceIKNS1_6matrixIdNS1_15basic_row_majorImlEENS1_15unbounded_arrayIdSaIdEEEEEEC1ERSA_,_ZN5boost7numeric5ublas16matrix_referenceIKNS1_6matrixIdNS1_15basic_row_majorImlEENS1_15unbounded_arrayIdSaIdEEEEEEC2ERSA_
	.section	.rodata
	.align 8
.LC29:
	.string	"/usr/include/boost/numeric/ublas/detail/matrix_assign.hpp"
	.section	.text._ZN5boost7numeric5ublas22indexing_matrix_assignINS1_13scalar_assignENS1_6matrixIdNS1_15basic_row_majorImlEENS1_15unbounded_arrayIdSaIdEEEEENS1_20matrix_matrix_binaryISA_SA_NS1_18matrix_matrix_prodISA_SA_dEEEEEEvRT0_RKNS1_17matrix_expressionIT1_EENS1_13row_major_tagE,"axG",@progbits,_ZN5boost7numeric5ublas22indexing_matrix_assignINS1_13scalar_assignENS1_6matrixIdNS1_15basic_row_majorImlEENS1_15unbounded_arrayIdSaIdEEEEENS1_20matrix_matrix_binaryISA_SA_NS1_18matrix_matrix_prodISA_SA_dEEEEEEvRT0_RKNS1_17matrix_expressionIT1_EENS1_13row_major_tagE,comdat
	.weak	_ZN5boost7numeric5ublas22indexing_matrix_assignINS1_13scalar_assignENS1_6matrixIdNS1_15basic_row_majorImlEENS1_15unbounded_arrayIdSaIdEEEEENS1_20matrix_matrix_binaryISA_SA_NS1_18matrix_matrix_prodISA_SA_dEEEEEEvRT0_RKNS1_17matrix_expressionIT1_EENS1_13row_major_tagE
	.type	_ZN5boost7numeric5ublas22indexing_matrix_assignINS1_13scalar_assignENS1_6matrixIdNS1_15basic_row_majorImlEENS1_15unbounded_arrayIdSaIdEEEEENS1_20matrix_matrix_binaryISA_SA_NS1_18matrix_matrix_prodISA_SA_dEEEEEEvRT0_RKNS1_17matrix_expressionIT1_EENS1_13row_major_tagE, @function
_ZN5boost7numeric5ublas22indexing_matrix_assignINS1_13scalar_assignENS1_6matrixIdNS1_15basic_row_majorImlEENS1_15unbounded_arrayIdSaIdEEEEENS1_20matrix_matrix_binaryISA_SA_NS1_18matrix_matrix_prodISA_SA_dEEEEEEvRT0_RKNS1_17matrix_expressionIT1_EENS1_13row_major_tagE:
.LFB8700:
	.cfi_startproc
	endbr64
	pushq	%rbp
	.cfi_def_cfa_offset 16
	.cfi_offset 6, -16
	movq	%rsp, %rbp
	.cfi_def_cfa_register 6
	subq	$80, %rsp
	movq	%rdi, -72(%rbp)
	movq	%rsi, -80(%rbp)
	movq	%fs:40, %rax
	movq	%rax, -8(%rbp)
	xorl	%eax, %eax
	movq	-80(%rbp), %rax
	movq	%rax, %rdi
	call	_ZNK5boost7numeric5ublas17matrix_expressionINS1_20matrix_matrix_binaryINS1_6matrixIdNS1_15basic_row_majorImlEENS1_15unbounded_arrayIdSaIdEEEEESA_NS1_18matrix_matrix_prodISA_SA_dEEEEEclEv
	movq	%rax, %rdi
	call	_ZNK5boost7numeric5ublas20matrix_matrix_binaryINS1_6matrixIdNS1_15basic_row_majorImlEENS1_15unbounded_arrayIdSaIdEEEEES9_NS1_18matrix_matrix_prodIS9_S9_dEEE5size1Ev
	movq	%rax, -48(%rbp)
	movq	-72(%rbp), %rax
	movq	%rax, %rdi
	call	_ZNK5boost7numeric5ublas6matrixIdNS1_15basic_row_majorImlEENS1_15unbounded_arrayIdSaIdEEEE5size1Ev
	movq	%rax, -56(%rbp)
	leaq	-48(%rbp), %rsi
	leaq	-56(%rbp), %rax
	movl	$584, %ecx
	leaq	.LC29(%rip), %rdx
	movq	%rax, %rdi
	call	_ZN5boost7numeric5ublas12same_impl_exImEET_RKS3_S5_PKci
	movq	%rax, -24(%rbp)
	movq	-80(%rbp), %rax
	movq	%rax, %rdi
	call	_ZNK5boost7numeric5ublas17matrix_expressionINS1_20matrix_matrix_binaryINS1_6matrixIdNS1_15basic_row_majorImlEENS1_15unbounded_arrayIdSaIdEEEEESA_NS1_18matrix_matrix_prodISA_SA_dEEEEEclEv
	movq	%rax, %rdi
	call	_ZNK5boost7numeric5ublas20matrix_matrix_binaryINS1_6matrixIdNS1_15basic_row_majorImlEENS1_15unbounded_arrayIdSaIdEEEEES9_NS1_18matrix_matrix_prodIS9_S9_dEEE5size2Ev
	movq	%rax, -48(%rbp)
	movq	-72(%rbp), %rax
	movq	%rax, %rdi
	call	_ZNK5boost7numeric5ublas6matrixIdNS1_15basic_row_majorImlEENS1_15unbounded_arrayIdSaIdEEEE5size2Ev
	movq	%rax, -56(%rbp)
	leaq	-48(%rbp), %rsi
	leaq	-56(%rbp), %rax
	movl	$585, %ecx
	leaq	.LC29(%rip), %rdx
	movq	%rax, %rdi
	call	_ZN5boost7numeric5ublas12same_impl_exImEET_RKS3_S5_PKci
	movq	%rax, -16(%rbp)
	movq	$0, -40(%rbp)
	jmp	.L211
.L214:
	movq	$0, -32(%rbp)
	jmp	.L212
.L213:
	movq	-80(%rbp), %rax
	movq	%rax, %rdi
	call	_ZNK5boost7numeric5ublas17matrix_expressionINS1_20matrix_matrix_binaryINS1_6matrixIdNS1_15basic_row_majorImlEENS1_15unbounded_arrayIdSaIdEEEEESA_NS1_18matrix_matrix_prodISA_SA_dEEEEEclEv
	movq	%rax, %rcx
	movq	-32(%rbp), %rdx
	movq	-40(%rbp), %rax
	movq	%rax, %rsi
	movq	%rcx, %rdi
	call	_ZNK5boost7numeric5ublas20matrix_matrix_binaryINS1_6matrixIdNS1_15basic_row_majorImlEENS1_15unbounded_arrayIdSaIdEEEEES9_NS1_18matrix_matrix_prodIS9_S9_dEEEclEmm
	movq	%xmm0, %rax
	movq	%rax, -48(%rbp)
	movq	-32(%rbp), %rdx
	movq	-40(%rbp), %rcx
	movq	-72(%rbp), %rax
	movq	%rcx, %rsi
	movq	%rax, %rdi
	call	_ZN5boost7numeric5ublas6matrixIdNS1_15basic_row_majorImlEENS1_15unbounded_arrayIdSaIdEEEEclEmm
	movq	%rax, %rdx
	leaq	-48(%rbp), %rax
	movq	%rax, %rsi
	movq	%rdx, %rdi
	call	_ZN5boost7numeric5ublas13scalar_assignIRddE5applyES3_RKd
	addq	$1, -32(%rbp)
.L212:
	movq	-32(%rbp), %rax
	cmpq	-16(%rbp), %rax
	jb	.L213
	addq	$1, -40(%rbp)
.L211:
	movq	-40(%rbp), %rax
	cmpq	-24(%rbp), %rax
	jb	.L214
	nop
	movq	-8(%rbp), %rax
	subq	%fs:40, %rax
	je	.L215
	call	__stack_chk_fail@PLT
.L215:
	leave
	.cfi_def_cfa 7, 8
	ret
	.cfi_endproc
.LFE8700:
	.size	_ZN5boost7numeric5ublas22indexing_matrix_assignINS1_13scalar_assignENS1_6matrixIdNS1_15basic_row_majorImlEENS1_15unbounded_arrayIdSaIdEEEEENS1_20matrix_matrix_binaryISA_SA_NS1_18matrix_matrix_prodISA_SA_dEEEEEEvRT0_RKNS1_17matrix_expressionIT1_EENS1_13row_major_tagE, .-_ZN5boost7numeric5ublas22indexing_matrix_assignINS1_13scalar_assignENS1_6matrixIdNS1_15basic_row_majorImlEENS1_15unbounded_arrayIdSaIdEEEEENS1_20matrix_matrix_binaryISA_SA_NS1_18matrix_matrix_prodISA_SA_dEEEEEEvRT0_RKNS1_17matrix_expressionIT1_EENS1_13row_major_tagE
	.section	.text._ZN5boost7numeric5ublas16ublas_expressionINS1_16matrix_referenceIKNS1_6matrixIdNS1_15basic_row_majorImlEENS1_15unbounded_arrayIdSaIdEEEEEEEEC2Ev,"axG",@progbits,_ZN5boost7numeric5ublas16ublas_expressionINS1_16matrix_referenceIKNS1_6matrixIdNS1_15basic_row_majorImlEENS1_15unbounded_arrayIdSaIdEEEEEEEEC5Ev,comdat
	.align 2
	.weak	_ZN5boost7numeric5ublas16ublas_expressionINS1_16matrix_referenceIKNS1_6matrixIdNS1_15basic_row_majorImlEENS1_15unbounded_arrayIdSaIdEEEEEEEEC2Ev
	.type	_ZN5boost7numeric5ublas16ublas_expressionINS1_16matrix_referenceIKNS1_6matrixIdNS1_15basic_row_majorImlEENS1_15unbounded_arrayIdSaIdEEEEEEEEC2Ev, @function
_ZN5boost7numeric5ublas16ublas_expressionINS1_16matrix_referenceIKNS1_6matrixIdNS1_15basic_row_majorImlEENS1_15unbounded_arrayIdSaIdEEEEEEEEC2Ev:
.LFB8750:
	.cfi_startproc
	endbr64
	pushq	%rbp
	.cfi_def_cfa_offset 16
	.cfi_offset 6, -16
	movq	%rsp, %rbp
	.cfi_def_cfa_register 6
	movq	%rdi, -8(%rbp)
	nop
	popq	%rbp
	.cfi_def_cfa 7, 8
	ret
	.cfi_endproc
.LFE8750:
	.size	_ZN5boost7numeric5ublas16ublas_expressionINS1_16matrix_referenceIKNS1_6matrixIdNS1_15basic_row_majorImlEENS1_15unbounded_arrayIdSaIdEEEEEEEEC2Ev, .-_ZN5boost7numeric5ublas16ublas_expressionINS1_16matrix_referenceIKNS1_6matrixIdNS1_15basic_row_majorImlEENS1_15unbounded_arrayIdSaIdEEEEEEEEC2Ev
	.weak	_ZN5boost7numeric5ublas16ublas_expressionINS1_16matrix_referenceIKNS1_6matrixIdNS1_15basic_row_majorImlEENS1_15unbounded_arrayIdSaIdEEEEEEEEC1Ev
	.set	_ZN5boost7numeric5ublas16ublas_expressionINS1_16matrix_referenceIKNS1_6matrixIdNS1_15basic_row_majorImlEENS1_15unbounded_arrayIdSaIdEEEEEEEEC1Ev,_ZN5boost7numeric5ublas16ublas_expressionINS1_16matrix_referenceIKNS1_6matrixIdNS1_15basic_row_majorImlEENS1_15unbounded_arrayIdSaIdEEEEEEEEC2Ev
	.section	.rodata
.LC30:
	.string	"size1 == size2"
.LC31:
	.string	"bad argument"
	.section	.text._ZN5boost7numeric5ublas12same_impl_exImEET_RKS3_S5_PKci,"axG",@progbits,_ZN5boost7numeric5ublas12same_impl_exImEET_RKS3_S5_PKci,comdat
	.weak	_ZN5boost7numeric5ublas12same_impl_exImEET_RKS3_S5_PKci
	.type	_ZN5boost7numeric5ublas12same_impl_exImEET_RKS3_S5_PKci, @function
_ZN5boost7numeric5ublas12same_impl_exImEET_RKS3_S5_PKci:
.LFB8752:
	.cfi_startproc
	.cfi_personality 0x9b,DW.ref.__gxx_personality_v0
	.cfi_lsda 0x1b,.LLSDA8752
	endbr64
	pushq	%rbp
	.cfi_def_cfa_offset 16
	.cfi_offset 6, -16
	movq	%rsp, %rbp
	.cfi_def_cfa_register 6
	pushq	%rbx
	subq	$72, %rsp
	.cfi_offset 3, -24
	movq	%rdi, -56(%rbp)
	movq	%rsi, -64(%rbp)
	movq	%rdx, -72(%rbp)
	movl	%ecx, -76(%rbp)
	movq	%fs:40, %rax
	movq	%rax, -24(%rbp)
	xorl	%eax, %eax
	movq	-56(%rbp), %rax
	movq	(%rax), %rdx
	movq	-64(%rbp), %rax
	movq	(%rax), %rax
	cmpq	%rax, %rdx
	je	.L218
	leaq	.LC16(%rip), %rax
	movq	%rax, %rsi
	leaq	_ZSt4cerr(%rip), %rax
	movq	%rax, %rdi
.LEHB33:
	call	_ZStlsISt11char_traitsIcEERSt13basic_ostreamIcT_ES5_PKc@PLT
	movq	%rax, %rdx
	movq	-72(%rbp), %rax
	movq	%rax, %rsi
	movq	%rdx, %rdi
	call	_ZStlsISt11char_traitsIcEERSt13basic_ostreamIcT_ES5_PKc@PLT
	movq	%rax, %rdx
	leaq	.LC18(%rip), %rax
	movq	%rax, %rsi
	movq	%rdx, %rdi
	call	_ZStlsISt11char_traitsIcEERSt13basic_ostreamIcT_ES5_PKc@PLT
	movq	%rax, %rdx
	movl	-76(%rbp), %eax
	movl	%eax, %esi
	movq	%rdx, %rdi
	call	_ZNSolsEi@PLT
	movq	%rax, %rdx
	leaq	.LC19(%rip), %rax
	movq	%rax, %rsi
	movq	%rdx, %rdi
	call	_ZStlsISt11char_traitsIcEERSt13basic_ostreamIcT_ES5_PKc@PLT
	movq	_ZSt4endlIcSt11char_traitsIcEERSt13basic_ostreamIT_T0_ES6_@GOTPCREL(%rip), %rdx
	movq	%rdx, %rsi
	movq	%rax, %rdi
	call	_ZNSolsEPFRSoS_E@PLT
	leaq	.LC30(%rip), %rax
	movq	%rax, %rsi
	leaq	_ZSt4cerr(%rip), %rax
	movq	%rax, %rdi
	call	_ZStlsISt11char_traitsIcEERSt13basic_ostreamIcT_ES5_PKc@PLT
	movq	_ZSt4endlIcSt11char_traitsIcEERSt13basic_ostreamIT_T0_ES6_@GOTPCREL(%rip), %rdx
	movq	%rdx, %rsi
	movq	%rax, %rdi
	call	_ZNSolsEPFRSoS_E@PLT
	leaq	-48(%rbp), %rax
	leaq	.LC31(%rip), %rdx
	movq	%rdx, %rsi
	movq	%rax, %rdi
	call	_ZN5boost7numeric5ublas12bad_argumentC1EPKc
.LEHE33:
	leaq	-48(%rbp), %rax
	movq	%rax, %rdi
.LEHB34:
	call	_ZN5boost7numeric5ublas12bad_argument5raiseEv
.LEHE34:
	leaq	-48(%rbp), %rax
	movq	%rax, %rdi
	call	_ZN5boost7numeric5ublas12bad_argumentD1Ev
.L218:
	movq	-64(%rbp), %rdx
	movq	-56(%rbp), %rax
	movq	%rdx, %rsi
	movq	%rax, %rdi
	call	_ZSt3minImERKT_S2_S2_
	movq	(%rax), %rax
	movq	-24(%rbp), %rdx
	subq	%fs:40, %rdx
	je	.L221
	jmp	.L223
.L222:
	endbr64
	movq	%rax, %rbx
	leaq	-48(%rbp), %rax
	movq	%rax, %rdi
	call	_ZN5boost7numeric5ublas12bad_argumentD1Ev
	movq	%rbx, %rax
	movq	%rax, %rdi
.LEHB35:
	call	_Unwind_Resume@PLT
.LEHE35:
.L223:
	call	__stack_chk_fail@PLT
.L221:
	movq	-8(%rbp), %rbx
	leave
	.cfi_def_cfa 7, 8
	ret
	.cfi_endproc
.LFE8752:
	.section	.gcc_except_table
.LLSDA8752:
	.byte	0xff
	.byte	0xff
	.byte	0x1
	.uleb128 .LLSDACSE8752-.LLSDACSB8752
.LLSDACSB8752:
	.uleb128 .LEHB33-.LFB8752
	.uleb128 .LEHE33-.LEHB33
	.uleb128 0
	.uleb128 0
	.uleb128 .LEHB34-.LFB8752
	.uleb128 .LEHE34-.LEHB34
	.uleb128 .L222-.LFB8752
	.uleb128 0
	.uleb128 .LEHB35-.LFB8752
	.uleb128 .LEHE35-.LEHB35
	.uleb128 0
	.uleb128 0
.LLSDACSE8752:
	.section	.text._ZN5boost7numeric5ublas12same_impl_exImEET_RKS3_S5_PKci,"axG",@progbits,_ZN5boost7numeric5ublas12same_impl_exImEET_RKS3_S5_PKci,comdat
	.size	_ZN5boost7numeric5ublas12same_impl_exImEET_RKS3_S5_PKci, .-_ZN5boost7numeric5ublas12same_impl_exImEET_RKS3_S5_PKci
	.section	.text._ZN5boost7numeric5ublas13scalar_assignIRddE5applyES3_RKd,"axG",@progbits,_ZN5boost7numeric5ublas13scalar_assignIRddE5applyES3_RKd,comdat
	.weak	_ZN5boost7numeric5ublas13scalar_assignIRddE5applyES3_RKd
	.type	_ZN5boost7numeric5ublas13scalar_assignIRddE5applyES3_RKd, @function
_ZN5boost7numeric5ublas13scalar_assignIRddE5applyES3_RKd:
.LFB8753:
	.cfi_startproc
	endbr64
	pushq	%rbp
	.cfi_def_cfa_offset 16
	.cfi_offset 6, -16
	movq	%rsp, %rbp
	.cfi_def_cfa_register 6
	movq	%rdi, -8(%rbp)
	movq	%rsi, -16(%rbp)
	movq	-16(%rbp), %rax
	movsd	(%rax), %xmm0
	movq	-8(%rbp), %rax
	movsd	%xmm0, (%rax)
	nop
	popq	%rbp
	.cfi_def_cfa 7, 8
	ret
	.cfi_endproc
.LFE8753:
	.size	_ZN5boost7numeric5ublas13scalar_assignIRddE5applyES3_RKd, .-_ZN5boost7numeric5ublas13scalar_assignIRddE5applyES3_RKd
	.section	.text._ZNK5boost7numeric5ublas20matrix_matrix_binaryINS1_6matrixIdNS1_15basic_row_majorImlEENS1_15unbounded_arrayIdSaIdEEEEES9_NS1_18matrix_matrix_prodIS9_S9_dEEEclEmm,"axG",@progbits,_ZNK5boost7numeric5ublas20matrix_matrix_binaryINS1_6matrixIdNS1_15basic_row_majorImlEENS1_15unbounded_arrayIdSaIdEEEEES9_NS1_18matrix_matrix_prodIS9_S9_dEEEclEmm,comdat
	.align 2
	.weak	_ZNK5boost7numeric5ublas20matrix_matrix_binaryINS1_6matrixIdNS1_15basic_row_majorImlEENS1_15unbounded_arrayIdSaIdEEEEES9_NS1_18matrix_matrix_prodIS9_S9_dEEEclEmm
	.type	_ZNK5boost7numeric5ublas20matrix_matrix_binaryINS1_6matrixIdNS1_15basic_row_majorImlEENS1_15unbounded_arrayIdSaIdEEEEES9_NS1_18matrix_matrix_prodIS9_S9_dEEEclEmm, @function
_ZNK5boost7numeric5ublas20matrix_matrix_binaryINS1_6matrixIdNS1_15basic_row_majorImlEENS1_15unbounded_arrayIdSaIdEEEEES9_NS1_18matrix_matrix_prodIS9_S9_dEEEclEmm:
.LFB8754:
	.cfi_startproc
	endbr64
	pushq	%rbp
	.cfi_def_cfa_offset 16
	.cfi_offset 6, -16
	movq	%rsp, %rbp
	.cfi_def_cfa_register 6
	subq	$32, %rsp
	movq	%rdi, -8(%rbp)
	movq	%rsi, -16(%rbp)
	movq	%rdx, -24(%rbp)
	movq	-8(%rbp), %rax
	leaq	8(%rax), %rsi
	movq	-8(%rbp), %rax
	movq	-24(%rbp), %rcx
	movq	-16(%rbp), %rdx
	movq	%rax, %rdi
	call	_ZN5boost7numeric5ublas18matrix_matrix_prodINS1_6matrixIdNS1_15basic_row_majorImlEENS1_15unbounded_arrayIdSaIdEEEEES9_dE5applyINS1_16matrix_referenceIKS9_EESE_EEdRKNS1_17matrix_expressionIT_EERKNSF_IT0_EEmm
	movq	%xmm0, %rax
	movq	%rax, %xmm0
	leave
	.cfi_def_cfa 7, 8
	ret
	.cfi_endproc
.LFE8754:
	.size	_ZNK5boost7numeric5ublas20matrix_matrix_binaryINS1_6matrixIdNS1_15basic_row_majorImlEENS1_15unbounded_arrayIdSaIdEEEEES9_NS1_18matrix_matrix_prodIS9_S9_dEEEclEmm, .-_ZNK5boost7numeric5ublas20matrix_matrix_binaryINS1_6matrixIdNS1_15basic_row_majorImlEENS1_15unbounded_arrayIdSaIdEEEEES9_NS1_18matrix_matrix_prodIS9_S9_dEEEclEmm
	.section	.text._ZN5boost7numeric5ublas18matrix_matrix_prodINS1_6matrixIdNS1_15basic_row_majorImlEENS1_15unbounded_arrayIdSaIdEEEEES9_dE5applyINS1_16matrix_referenceIKS9_EESE_EEdRKNS1_17matrix_expressionIT_EERKNSF_IT0_EEmm,"axG",@progbits,_ZN5boost7numeric5ublas18matrix_matrix_prodINS1_6matrixIdNS1_15basic_row_majorImlEENS1_15unbounded_arrayIdSaIdEEEEES9_dE5applyINS1_16matrix_referenceIKS9_EESE_EEdRKNS1_17matrix_expressionIT_EERKNSF_IT0_EEmm,comdat
	.weak	_ZN5boost7numeric5ublas18matrix_matrix_prodINS1_6matrixIdNS1_15basic_row_majorImlEENS1_15unbounded_arrayIdSaIdEEEEES9_dE5applyINS1_16matrix_referenceIKS9_EESE_EEdRKNS1_17matrix_expressionIT_EERKNSF_IT0_EEmm
	.type	_ZN5boost7numeric5ublas18matrix_matrix_prodINS1_6matrixIdNS1_15basic_row_majorImlEENS1_15unbounded_arrayIdSaIdEEEEES9_dE5applyINS1_16matrix_referenceIKS9_EESE_EEdRKNS1_17matrix_expressionIT_EERKNSF_IT0_EEmm, @function
_ZN5boost7numeric5ublas18matrix_matrix_prodINS1_6matrixIdNS1_15basic_row_majorImlEENS1_15unbounded_arrayIdSaIdEEEEES9_dE5applyINS1_16matrix_referenceIKS9_EESE_EEdRKNS1_17matrix_expressionIT_EERKNSF_IT0_EEmm:
.LFB8781:
	.cfi_startproc
	endbr64
	pushq	%rbp
	.cfi_def_cfa_offset 16
	.cfi_offset 6, -16
	movq	%rsp, %rbp
	.cfi_def_cfa_register 6
	subq	$96, %rsp
	movq	%rdi, -56(%rbp)
	movq	%rsi, -64(%rbp)
	movq	%rdx, -72(%rbp)
	movq	%rcx, -80(%rbp)
	movq	%fs:40, %rax
	movq	%rax, -8(%rbp)
	xorl	%eax, %eax
	movq	-64(%rbp), %rax
	movq	%rax, %rdi
	call	_ZNK5boost7numeric5ublas17matrix_expressionINS1_16matrix_referenceIKNS1_6matrixIdNS1_15basic_row_majorImlEENS1_15unbounded_arrayIdSaIdEEEEEEEEclEv
	movq	%rax, %rdi
	call	_ZNK5boost7numeric5ublas16matrix_referenceIKNS1_6matrixIdNS1_15basic_row_majorImlEENS1_15unbounded_arrayIdSaIdEEEEEE5size1Ev
	movq	%rax, -40(%rbp)
	movq	-56(%rbp), %rax
	movq	%rax, %rdi
	call	_ZNK5boost7numeric5ublas17matrix_expressionINS1_16matrix_referenceIKNS1_6matrixIdNS1_15basic_row_majorImlEENS1_15unbounded_arrayIdSaIdEEEEEEEEclEv
	movq	%rax, %rdi
	call	_ZNK5boost7numeric5ublas16matrix_referenceIKNS1_6matrixIdNS1_15basic_row_majorImlEENS1_15unbounded_arrayIdSaIdEEEEEE5size2Ev
	movq	%rax, -48(%rbp)
	leaq	-40(%rbp), %rsi
	leaq	-48(%rbp), %rax
	movl	$1220, %ecx
	leaq	.LC17(%rip), %rdx
	movq	%rax, %rdi
	call	_ZN5boost7numeric5ublas12same_impl_exImEET_RKS3_S5_PKci
	movq	%rax, -16(%rbp)
	pxor	%xmm0, %xmm0
	movsd	%xmm0, -32(%rbp)
	movq	$0, -24(%rbp)
	jmp	.L228
.L229:
	movq	-56(%rbp), %rax
	movq	%rax, %rdi
	call	_ZNK5boost7numeric5ublas17matrix_expressionINS1_16matrix_referenceIKNS1_6matrixIdNS1_15basic_row_majorImlEENS1_15unbounded_arrayIdSaIdEEEEEEEEclEv
	movq	%rax, %rcx
	movq	-24(%rbp), %rdx
	movq	-72(%rbp), %rax
	movq	%rax, %rsi
	movq	%rcx, %rdi
	call	_ZNK5boost7numeric5ublas16matrix_referenceIKNS1_6matrixIdNS1_15basic_row_majorImlEENS1_15unbounded_arrayIdSaIdEEEEEEclEmm
	movsd	(%rax), %xmm2
	movsd	%xmm2, -88(%rbp)
	movq	-64(%rbp), %rax
	movq	%rax, %rdi
	call	_ZNK5boost7numeric5ublas17matrix_expressionINS1_16matrix_referenceIKNS1_6matrixIdNS1_15basic_row_majorImlEENS1_15unbounded_arrayIdSaIdEEEEEEEEclEv
	movq	%rax, %rcx
	movq	-80(%rbp), %rdx
	movq	-24(%rbp), %rax
	movq	%rax, %rsi
	movq	%rcx, %rdi
	call	_ZNK5boost7numeric5ublas16matrix_referenceIKNS1_6matrixIdNS1_15basic_row_majorImlEENS1_15unbounded_arrayIdSaIdEEEEEEclEmm
	movsd	(%rax), %xmm0
	mulsd	-88(%rbp), %xmm0
	movsd	-32(%rbp), %xmm1
	addsd	%xmm1, %xmm0
	movsd	%xmm0, -32(%rbp)
	addq	$1, -24(%rbp)
.L228:
	movq	-24(%rbp), %rax
	cmpq	-16(%rbp), %rax
	jb	.L229
	movsd	-32(%rbp), %xmm0
	movq	%xmm0, %rax
	movq	-8(%rbp), %rdx
	subq	%fs:40, %rdx
	je	.L231
	call	__stack_chk_fail@PLT
.L231:
	movq	%rax, %xmm0
	leave
	.cfi_def_cfa 7, 8
	ret
	.cfi_endproc
.LFE8781:
	.size	_ZN5boost7numeric5ublas18matrix_matrix_prodINS1_6matrixIdNS1_15basic_row_majorImlEENS1_15unbounded_arrayIdSaIdEEEEES9_dE5applyINS1_16matrix_referenceIKS9_EESE_EEdRKNS1_17matrix_expressionIT_EERKNSF_IT0_EEmm, .-_ZN5boost7numeric5ublas18matrix_matrix_prodINS1_6matrixIdNS1_15basic_row_majorImlEENS1_15unbounded_arrayIdSaIdEEEEES9_dE5applyINS1_16matrix_referenceIKS9_EESE_EEdRKNS1_17matrix_expressionIT_EERKNSF_IT0_EEmm
	.section	.text._ZNK5boost7numeric5ublas17matrix_expressionINS1_16matrix_referenceIKNS1_6matrixIdNS1_15basic_row_majorImlEENS1_15unbounded_arrayIdSaIdEEEEEEEEclEv,"axG",@progbits,_ZNK5boost7numeric5ublas17matrix_expressionINS1_16matrix_referenceIKNS1_6matrixIdNS1_15basic_row_majorImlEENS1_15unbounded_arrayIdSaIdEEEEEEEEclEv,comdat
	.align 2
	.weak	_ZNK5boost7numeric5ublas17matrix_expressionINS1_16matrix_referenceIKNS1_6matrixIdNS1_15basic_row_majorImlEENS1_15unbounded_arrayIdSaIdEEEEEEEEclEv
	.type	_ZNK5boost7numeric5ublas17matrix_expressionINS1_16matrix_referenceIKNS1_6matrixIdNS1_15basic_row_majorImlEENS1_15unbounded_arrayIdSaIdEEEEEEEEclEv, @function
_ZNK5boost7numeric5ublas17matrix_expressionINS1_16matrix_referenceIKNS1_6matrixIdNS1_15basic_row_majorImlEENS1_15unbounded_arrayIdSaIdEEEEEEEEclEv:
.LFB8794:
	.cfi_startproc
	endbr64
	pushq	%rbp
	.cfi_def_cfa_offset 16
	.cfi_offset 6, -16
	movq	%rsp, %rbp
	.cfi_def_cfa_register 6
	movq	%rdi, -8(%rbp)
	movq	-8(%rbp), %rax
	popq	%rbp
	.cfi_def_cfa 7, 8
	ret
	.cfi_endproc
.LFE8794:
	.size	_ZNK5boost7numeric5ublas17matrix_expressionINS1_16matrix_referenceIKNS1_6matrixIdNS1_15basic_row_majorImlEENS1_15unbounded_arrayIdSaIdEEEEEEEEclEv, .-_ZNK5boost7numeric5ublas17matrix_expressionINS1_16matrix_referenceIKNS1_6matrixIdNS1_15basic_row_majorImlEENS1_15unbounded_arrayIdSaIdEEEEEEEEclEv
	.section	.text._ZNK5boost7numeric5ublas16matrix_referenceIKNS1_6matrixIdNS1_15basic_row_majorImlEENS1_15unbounded_arrayIdSaIdEEEEEEclEmm,"axG",@progbits,_ZNK5boost7numeric5ublas16matrix_referenceIKNS1_6matrixIdNS1_15basic_row_majorImlEENS1_15unbounded_arrayIdSaIdEEEEEEclEmm,comdat
	.align 2
	.weak	_ZNK5boost7numeric5ublas16matrix_referenceIKNS1_6matrixIdNS1_15basic_row_majorImlEENS1_15unbounded_arrayIdSaIdEEEEEEclEmm
	.type	_ZNK5boost7numeric5ublas16matrix_referenceIKNS1_6matrixIdNS1_15basic_row_majorImlEENS1_15unbounded_arrayIdSaIdEEEEEEclEmm, @function
_ZNK5boost7numeric5ublas16matrix_referenceIKNS1_6matrixIdNS1_15basic_row_majorImlEENS1_15unbounded_arrayIdSaIdEEEEEEclEmm:
.LFB8795:
	.cfi_startproc
	endbr64
	pushq	%rbp
	.cfi_def_cfa_offset 16
	.cfi_offset 6, -16
	movq	%rsp, %rbp
	.cfi_def_cfa_register 6
	subq	$32, %rsp
	movq	%rdi, -8(%rbp)
	movq	%rsi, -16(%rbp)
	movq	%rdx, -24(%rbp)
	movq	-8(%rbp), %rax
	movq	%rax, %rdi
	call	_ZNK5boost7numeric5ublas16matrix_referenceIKNS1_6matrixIdNS1_15basic_row_majorImlEENS1_15unbounded_arrayIdSaIdEEEEEE10expressionEv
	movq	%rax, %rcx
	movq	-24(%rbp), %rdx
	movq	-16(%rbp), %rax
	movq	%rax, %rsi
	movq	%rcx, %rdi
	call	_ZNK5boost7numeric5ublas6matrixIdNS1_15basic_row_majorImlEENS1_15unbounded_arrayIdSaIdEEEEclEmm
	leave
	.cfi_def_cfa 7, 8
	ret
	.cfi_endproc
.LFE8795:
	.size	_ZNK5boost7numeric5ublas16matrix_referenceIKNS1_6matrixIdNS1_15basic_row_majorImlEENS1_15unbounded_arrayIdSaIdEEEEEEclEmm, .-_ZNK5boost7numeric5ublas16matrix_referenceIKNS1_6matrixIdNS1_15basic_row_majorImlEENS1_15unbounded_arrayIdSaIdEEEEEEclEmm
	.section	.text._ZNK5boost7numeric5ublas16matrix_referenceIKNS1_6matrixIdNS1_15basic_row_majorImlEENS1_15unbounded_arrayIdSaIdEEEEEE10expressionEv,"axG",@progbits,_ZNK5boost7numeric5ublas16matrix_referenceIKNS1_6matrixIdNS1_15basic_row_majorImlEENS1_15unbounded_arrayIdSaIdEEEEEE10expressionEv,comdat
	.align 2
	.weak	_ZNK5boost7numeric5ublas16matrix_referenceIKNS1_6matrixIdNS1_15basic_row_majorImlEENS1_15unbounded_arrayIdSaIdEEEEEE10expressionEv
	.type	_ZNK5boost7numeric5ublas16matrix_referenceIKNS1_6matrixIdNS1_15basic_row_majorImlEENS1_15unbounded_arrayIdSaIdEEEEEE10expressionEv, @function
_ZNK5boost7numeric5ublas16matrix_referenceIKNS1_6matrixIdNS1_15basic_row_majorImlEENS1_15unbounded_arrayIdSaIdEEEEEE10expressionEv:
.LFB8798:
	.cfi_startproc
	endbr64
	pushq	%rbp
	.cfi_def_cfa_offset 16
	.cfi_offset 6, -16
	movq	%rsp, %rbp
	.cfi_def_cfa_register 6
	movq	%rdi, -8(%rbp)
	movq	-8(%rbp), %rax
	movq	(%rax), %rax
	popq	%rbp
	.cfi_def_cfa 7, 8
	ret
	.cfi_endproc
.LFE8798:
	.size	_ZNK5boost7numeric5ublas16matrix_referenceIKNS1_6matrixIdNS1_15basic_row_majorImlEENS1_15unbounded_arrayIdSaIdEEEEEE10expressionEv, .-_ZNK5boost7numeric5ublas16matrix_referenceIKNS1_6matrixIdNS1_15basic_row_majorImlEENS1_15unbounded_arrayIdSaIdEEEEEE10expressionEv
	.weak	_ZTVN5boost7numeric5ublas9bad_indexE
	.section	.data.rel.ro._ZTVN5boost7numeric5ublas9bad_indexE,"awG",@progbits,_ZTVN5boost7numeric5ublas9bad_indexE,comdat
	.align 8
	.type	_ZTVN5boost7numeric5ublas9bad_indexE, @object
	.size	_ZTVN5boost7numeric5ublas9bad_indexE, 40
_ZTVN5boost7numeric5ublas9bad_indexE:
	.quad	0
	.quad	_ZTIN5boost7numeric5ublas9bad_indexE
	.quad	_ZN5boost7numeric5ublas9bad_indexD1Ev
	.quad	_ZN5boost7numeric5ublas9bad_indexD0Ev
	.quad	_ZNKSt11logic_error4whatEv
	.section	.text._ZN5boost7numeric5ublas9bad_indexD2Ev,"axG",@progbits,_ZN5boost7numeric5ublas9bad_indexD5Ev,comdat
	.align 2
	.weak	_ZN5boost7numeric5ublas9bad_indexD2Ev
	.type	_ZN5boost7numeric5ublas9bad_indexD2Ev, @function
_ZN5boost7numeric5ublas9bad_indexD2Ev:
.LFB8808:
	.cfi_startproc
	endbr64
	pushq	%rbp
	.cfi_def_cfa_offset 16
	.cfi_offset 6, -16
	movq	%rsp, %rbp
	.cfi_def_cfa_register 6
	subq	$16, %rsp
	movq	%rdi, -8(%rbp)
	leaq	16+_ZTVN5boost7numeric5ublas9bad_indexE(%rip), %rdx
	movq	-8(%rbp), %rax
	movq	%rdx, (%rax)
	movq	-8(%rbp), %rax
	movq	%rax, %rdi
	call	_ZNSt12out_of_rangeD2Ev@PLT
	nop
	leave
	.cfi_def_cfa 7, 8
	ret
	.cfi_endproc
.LFE8808:
	.size	_ZN5boost7numeric5ublas9bad_indexD2Ev, .-_ZN5boost7numeric5ublas9bad_indexD2Ev
	.weak	_ZN5boost7numeric5ublas9bad_indexD1Ev
	.set	_ZN5boost7numeric5ublas9bad_indexD1Ev,_ZN5boost7numeric5ublas9bad_indexD2Ev
	.section	.text._ZN5boost7numeric5ublas9bad_indexD0Ev,"axG",@progbits,_ZN5boost7numeric5ublas9bad_indexD5Ev,comdat
	.align 2
	.weak	_ZN5boost7numeric5ublas9bad_indexD0Ev
	.type	_ZN5boost7numeric5ublas9bad_indexD0Ev, @function
_ZN5boost7numeric5ublas9bad_indexD0Ev:
.LFB8810:
	.cfi_startproc
	endbr64
	pushq	%rbp
	.cfi_def_cfa_offset 16
	.cfi_offset 6, -16
	movq	%rsp, %rbp
	.cfi_def_cfa_register 6
	subq	$16, %rsp
	movq	%rdi, -8(%rbp)
	movq	-8(%rbp), %rax
	movq	%rax, %rdi
	call	_ZN5boost7numeric5ublas9bad_indexD1Ev
	movq	-8(%rbp), %rax
	movl	$16, %esi
	movq	%rax, %rdi
	call	_ZdlPvm@PLT
	leave
	.cfi_def_cfa 7, 8
	ret
	.cfi_endproc
.LFE8810:
	.size	_ZN5boost7numeric5ublas9bad_indexD0Ev, .-_ZN5boost7numeric5ublas9bad_indexD0Ev
	.weak	_ZTVN5boost7numeric5ublas8bad_sizeE
	.section	.data.rel.ro._ZTVN5boost7numeric5ublas8bad_sizeE,"awG",@progbits,_ZTVN5boost7numeric5ublas8bad_sizeE,comdat
	.align 8
	.type	_ZTVN5boost7numeric5ublas8bad_sizeE, @object
	.size	_ZTVN5boost7numeric5ublas8bad_sizeE, 40
_ZTVN5boost7numeric5ublas8bad_sizeE:
	.quad	0
	.quad	_ZTIN5boost7numeric5ublas8bad_sizeE
	.quad	_ZN5boost7numeric5ublas8bad_sizeD1Ev
	.quad	_ZN5boost7numeric5ublas8bad_sizeD0Ev
	.quad	_ZNKSt11logic_error4whatEv
	.section	.text._ZN5boost7numeric5ublas8bad_sizeD2Ev,"axG",@progbits,_ZN5boost7numeric5ublas8bad_sizeD5Ev,comdat
	.align 2
	.weak	_ZN5boost7numeric5ublas8bad_sizeD2Ev
	.type	_ZN5boost7numeric5ublas8bad_sizeD2Ev, @function
_ZN5boost7numeric5ublas8bad_sizeD2Ev:
.LFB8812:
	.cfi_startproc
	endbr64
	pushq	%rbp
	.cfi_def_cfa_offset 16
	.cfi_offset 6, -16
	movq	%rsp, %rbp
	.cfi_def_cfa_register 6
	subq	$16, %rsp
	movq	%rdi, -8(%rbp)
	leaq	16+_ZTVN5boost7numeric5ublas8bad_sizeE(%rip), %rdx
	movq	-8(%rbp), %rax
	movq	%rdx, (%rax)
	movq	-8(%rbp), %rax
	movq	%rax, %rdi
	call	_ZNSt12domain_errorD2Ev@PLT
	nop
	leave
	.cfi_def_cfa 7, 8
	ret
	.cfi_endproc
.LFE8812:
	.size	_ZN5boost7numeric5ublas8bad_sizeD2Ev, .-_ZN5boost7numeric5ublas8bad_sizeD2Ev
	.weak	_ZN5boost7numeric5ublas8bad_sizeD1Ev
	.set	_ZN5boost7numeric5ublas8bad_sizeD1Ev,_ZN5boost7numeric5ublas8bad_sizeD2Ev
	.section	.text._ZN5boost7numeric5ublas8bad_sizeD0Ev,"axG",@progbits,_ZN5boost7numeric5ublas8bad_sizeD5Ev,comdat
	.align 2
	.weak	_ZN5boost7numeric5ublas8bad_sizeD0Ev
	.type	_ZN5boost7numeric5ublas8bad_sizeD0Ev, @function
_ZN5boost7numeric5ublas8bad_sizeD0Ev:
.LFB8814:
	.cfi_startproc
	endbr64
	pushq	%rbp
	.cfi_def_cfa_offset 16
	.cfi_offset 6, -16
	movq	%rsp, %rbp
	.cfi_def_cfa_register 6
	subq	$16, %rsp
	movq	%rdi, -8(%rbp)
	movq	-8(%rbp), %rax
	movq	%rax, %rdi
	call	_ZN5boost7numeric5ublas8bad_sizeD1Ev
	movq	-8(%rbp), %rax
	movl	$16, %esi
	movq	%rax, %rdi
	call	_ZdlPvm@PLT
	leave
	.cfi_def_cfa 7, 8
	ret
	.cfi_endproc
.LFE8814:
	.size	_ZN5boost7numeric5ublas8bad_sizeD0Ev, .-_ZN5boost7numeric5ublas8bad_sizeD0Ev
	.weak	_ZTVN5boost7numeric5ublas12bad_argumentE
	.section	.data.rel.ro._ZTVN5boost7numeric5ublas12bad_argumentE,"awG",@progbits,_ZTVN5boost7numeric5ublas12bad_argumentE,comdat
	.align 8
	.type	_ZTVN5boost7numeric5ublas12bad_argumentE, @object
	.size	_ZTVN5boost7numeric5ublas12bad_argumentE, 40
_ZTVN5boost7numeric5ublas12bad_argumentE:
	.quad	0
	.quad	_ZTIN5boost7numeric5ublas12bad_argumentE
	.quad	_ZN5boost7numeric5ublas12bad_argumentD1Ev
	.quad	_ZN5boost7numeric5ublas12bad_argumentD0Ev
	.quad	_ZNKSt11logic_error4whatEv
	.section	.text._ZN5boost7numeric5ublas12bad_argumentD2Ev,"axG",@progbits,_ZN5boost7numeric5ublas12bad_argumentD5Ev,comdat
	.align 2
	.weak	_ZN5boost7numeric5ublas12bad_argumentD2Ev
	.type	_ZN5boost7numeric5ublas12bad_argumentD2Ev, @function
_ZN5boost7numeric5ublas12bad_argumentD2Ev:
.LFB8816:
	.cfi_startproc
	endbr64
	pushq	%rbp
	.cfi_def_cfa_offset 16
	.cfi_offset 6, -16
	movq	%rsp, %rbp
	.cfi_def_cfa_register 6
	subq	$16, %rsp
	movq	%rdi, -8(%rbp)
	leaq	16+_ZTVN5boost7numeric5ublas12bad_argumentE(%rip), %rdx
	movq	-8(%rbp), %rax
	movq	%rdx, (%rax)
	movq	-8(%rbp), %rax
	movq	%rax, %rdi
	call	_ZNSt16invalid_argumentD2Ev@PLT
	nop
	leave
	.cfi_def_cfa 7, 8
	ret
	.cfi_endproc
.LFE8816:
	.size	_ZN5boost7numeric5ublas12bad_argumentD2Ev, .-_ZN5boost7numeric5ublas12bad_argumentD2Ev
	.weak	_ZN5boost7numeric5ublas12bad_argumentD1Ev
	.set	_ZN5boost7numeric5ublas12bad_argumentD1Ev,_ZN5boost7numeric5ublas12bad_argumentD2Ev
	.section	.text._ZN5boost7numeric5ublas12bad_argumentD0Ev,"axG",@progbits,_ZN5boost7numeric5ublas12bad_argumentD5Ev,comdat
	.align 2
	.weak	_ZN5boost7numeric5ublas12bad_argumentD0Ev
	.type	_ZN5boost7numeric5ublas12bad_argumentD0Ev, @function
_ZN5boost7numeric5ublas12bad_argumentD0Ev:
.LFB8818:
	.cfi_startproc
	endbr64
	pushq	%rbp
	.cfi_def_cfa_offset 16
	.cfi_offset 6, -16
	movq	%rsp, %rbp
	.cfi_def_cfa_register 6
	subq	$16, %rsp
	movq	%rdi, -8(%rbp)
	movq	-8(%rbp), %rax
	movq	%rax, %rdi
	call	_ZN5boost7numeric5ublas12bad_argumentD1Ev
	movq	-8(%rbp), %rax
	movl	$16, %esi
	movq	%rax, %rdi
	call	_ZdlPvm@PLT
	leave
	.cfi_def_cfa 7, 8
	ret
	.cfi_endproc
.LFE8818:
	.size	_ZN5boost7numeric5ublas12bad_argumentD0Ev, .-_ZN5boost7numeric5ublas12bad_argumentD0Ev
	.weak	_ZTIN5boost7numeric5ublas9bad_indexE
	.section	.data.rel.ro._ZTIN5boost7numeric5ublas9bad_indexE,"awG",@progbits,_ZTIN5boost7numeric5ublas9bad_indexE,comdat
	.align 8
	.type	_ZTIN5boost7numeric5ublas9bad_indexE, @object
	.size	_ZTIN5boost7numeric5ublas9bad_indexE, 24
_ZTIN5boost7numeric5ublas9bad_indexE:
	.quad	_ZTVN10__cxxabiv120__si_class_type_infoE+16
	.quad	_ZTSN5boost7numeric5ublas9bad_indexE
	.quad	_ZTISt12out_of_range
	.weak	_ZTSN5boost7numeric5ublas9bad_indexE
	.section	.rodata._ZTSN5boost7numeric5ublas9bad_indexE,"aG",@progbits,_ZTSN5boost7numeric5ublas9bad_indexE,comdat
	.align 32
	.type	_ZTSN5boost7numeric5ublas9bad_indexE, @object
	.size	_ZTSN5boost7numeric5ublas9bad_indexE, 33
_ZTSN5boost7numeric5ublas9bad_indexE:
	.string	"N5boost7numeric5ublas9bad_indexE"
	.weak	_ZTIN5boost7numeric5ublas8bad_sizeE
	.section	.data.rel.ro._ZTIN5boost7numeric5ublas8bad_sizeE,"awG",@progbits,_ZTIN5boost7numeric5ublas8bad_sizeE,comdat
	.align 8
	.type	_ZTIN5boost7numeric5ublas8bad_sizeE, @object
	.size	_ZTIN5boost7numeric5ublas8bad_sizeE, 24
_ZTIN5boost7numeric5ublas8bad_sizeE:
	.quad	_ZTVN10__cxxabiv120__si_class_type_infoE+16
	.quad	_ZTSN5boost7numeric5ublas8bad_sizeE
	.quad	_ZTISt12domain_error
	.weak	_ZTSN5boost7numeric5ublas8bad_sizeE
	.section	.rodata._ZTSN5boost7numeric5ublas8bad_sizeE,"aG",@progbits,_ZTSN5boost7numeric5ublas8bad_sizeE,comdat
	.align 32
	.type	_ZTSN5boost7numeric5ublas8bad_sizeE, @object
	.size	_ZTSN5boost7numeric5ublas8bad_sizeE, 32
_ZTSN5boost7numeric5ublas8bad_sizeE:
	.string	"N5boost7numeric5ublas8bad_sizeE"
	.weak	_ZTIN5boost7numeric5ublas12bad_argumentE
	.section	.data.rel.ro._ZTIN5boost7numeric5ublas12bad_argumentE,"awG",@progbits,_ZTIN5boost7numeric5ublas12bad_argumentE,comdat
	.align 8
	.type	_ZTIN5boost7numeric5ublas12bad_argumentE, @object
	.size	_ZTIN5boost7numeric5ublas12bad_argumentE, 24
_ZTIN5boost7numeric5ublas12bad_argumentE:
	.quad	_ZTVN10__cxxabiv120__si_class_type_infoE+16
	.quad	_ZTSN5boost7numeric5ublas12bad_argumentE
	.quad	_ZTISt16invalid_argument
	.weak	_ZTSN5boost7numeric5ublas12bad_argumentE
	.section	.rodata._ZTSN5boost7numeric5ublas12bad_argumentE,"aG",@progbits,_ZTSN5boost7numeric5ublas12bad_argumentE,comdat
	.align 32
	.type	_ZTSN5boost7numeric5ublas12bad_argumentE, @object
	.size	_ZTSN5boost7numeric5ublas12bad_argumentE, 37
_ZTSN5boost7numeric5ublas12bad_argumentE:
	.string	"N5boost7numeric5ublas12bad_argumentE"
	.text
	.type	_Z41__static_initialization_and_destruction_0ii, @function
_Z41__static_initialization_and_destruction_0ii:
.LFB8847:
	.cfi_startproc
	endbr64
	pushq	%rbp
	.cfi_def_cfa_offset 16
	.cfi_offset 6, -16
	movq	%rsp, %rbp
	.cfi_def_cfa_register 6
	subq	$16, %rsp
	movl	%edi, -4(%rbp)
	movl	%esi, -8(%rbp)
	cmpl	$1, -4(%rbp)
	jne	.L246
	cmpl	$65535, -8(%rbp)
	jne	.L246
	leaq	_ZStL8__ioinit(%rip), %rax
	movq	%rax, %rdi
	call	_ZNSt8ios_base4InitC1Ev@PLT
	leaq	__dso_handle(%rip), %rax
	movq	%rax, %rdx
	leaq	_ZStL8__ioinit(%rip), %rax
	movq	%rax, %rsi
	movq	_ZNSt8ios_base4InitD1Ev@GOTPCREL(%rip), %rax
	movq	%rax, %rdi
	call	__cxa_atexit@PLT
.L246:
	nop
	leave
	.cfi_def_cfa 7, 8
	ret
	.cfi_endproc
.LFE8847:
	.size	_Z41__static_initialization_and_destruction_0ii, .-_Z41__static_initialization_and_destruction_0ii
	.type	_GLOBAL__sub_I__ZlsRSoRKN5boost7numeric5ublas6matrixIdNS2_15basic_row_majorImlEENS2_15unbounded_arrayIdSaIdEEEEE, @function
_GLOBAL__sub_I__ZlsRSoRKN5boost7numeric5ublas6matrixIdNS2_15basic_row_majorImlEENS2_15unbounded_arrayIdSaIdEEEEE:
.LFB8848:
	.cfi_startproc
	endbr64
	pushq	%rbp
	.cfi_def_cfa_offset 16
	.cfi_offset 6, -16
	movq	%rsp, %rbp
	.cfi_def_cfa_register 6
	movl	$65535, %esi
	movl	$1, %edi
	call	_Z41__static_initialization_and_destruction_0ii
	popq	%rbp
	.cfi_def_cfa 7, 8
	ret
	.cfi_endproc
.LFE8848:
	.size	_GLOBAL__sub_I__ZlsRSoRKN5boost7numeric5ublas6matrixIdNS2_15basic_row_majorImlEENS2_15unbounded_arrayIdSaIdEEEEE, .-_GLOBAL__sub_I__ZlsRSoRKN5boost7numeric5ublas6matrixIdNS2_15basic_row_majorImlEENS2_15unbounded_arrayIdSaIdEEEEE
	.section	.init_array,"aw"
	.align 8
	.quad	_GLOBAL__sub_I__ZlsRSoRKN5boost7numeric5ublas6matrixIdNS2_15basic_row_majorImlEENS2_15unbounded_arrayIdSaIdEEEEE
	.section	.rodata
	.align 8
.LC4:
	.long	0
	.long	1072693248
	.align 8
.LC5:
	.long	0
	.long	1073741824
	.align 8
.LC6:
	.long	0
	.long	1074266112
	.align 8
.LC7:
	.long	0
	.long	1074790400
	.align 8
.LC8:
	.long	0
	.long	-1074790400
	.align 8
.LC28:
	.long	0
	.long	1104006501
	.hidden	DW.ref.__gxx_personality_v0
	.weak	DW.ref.__gxx_personality_v0
	.section	.data.rel.local.DW.ref.__gxx_personality_v0,"awG",@progbits,DW.ref.__gxx_personality_v0,comdat
	.align 8
	.type	DW.ref.__gxx_personality_v0, @object
	.size	DW.ref.__gxx_personality_v0, 8
DW.ref.__gxx_personality_v0:
	.quad	__gxx_personality_v0
	.hidden	__dso_handle
	.ident	"GCC: (Ubuntu 11.4.0-1ubuntu1~22.04) 11.4.0"
	.section	.note.GNU-stack,"",@progbits
	.section	.note.gnu.property,"a"
	.align 8
	.long	1f - 0f
	.long	4f - 1f
	.long	5
0:
	.string	"GNU"
1:
	.align 8
	.long	0xc0000002
	.long	3f - 2f
2:
	.long	0x3
3:
	.align 8
4:
